
SM1370R.elf:     file format elf32-avr

Sections:
Idx Name          Size      VMA       LMA       File off  Algn
  0 .data         00000018  00800100  000045de  00004672  2**0
                  CONTENTS, ALLOC, LOAD, DATA
  1 .text         000045de  00000000  00000000  00000094  2**1
                  CONTENTS, ALLOC, LOAD, READONLY, CODE
  2 .bss          000000ed  00800118  00800118  0000468a  2**0
                  ALLOC
  3 .comment      0000005c  00000000  00000000  0000468a  2**0
                  CONTENTS, READONLY
  4 .note.gnu.avr.deviceinfo 00000040  00000000  00000000  000046e8  2**2
                  CONTENTS, READONLY
  5 .debug_info   000005f4  00000000  00000000  00004728  2**0
                  CONTENTS, READONLY, DEBUGGING
  6 .debug_abbrev 000005a2  00000000  00000000  00004d1c  2**0
                  CONTENTS, READONLY, DEBUGGING
  7 .debug_line   00000133  00000000  00000000  000052be  2**0
                  CONTENTS, READONLY, DEBUGGING
  8 .debug_str    00000208  00000000  00000000  000053f1  2**0
                  CONTENTS, READONLY, DEBUGGING

Disassembly of section .text:

00000000 <__vectors>:
       0:	0c 94 ea 13 	jmp	0x27d4	; 0x27d4 <__ctors_end>
       4:	0c 94 12 14 	jmp	0x2824	; 0x2824 <__bad_interrupt>
       8:	0c 94 12 14 	jmp	0x2824	; 0x2824 <__bad_interrupt>
       c:	0c 94 12 14 	jmp	0x2824	; 0x2824 <__bad_interrupt>
      10:	0c 94 12 14 	jmp	0x2824	; 0x2824 <__bad_interrupt>
      14:	0c 94 12 14 	jmp	0x2824	; 0x2824 <__bad_interrupt>
      18:	0c 94 12 14 	jmp	0x2824	; 0x2824 <__bad_interrupt>
      1c:	0c 94 12 14 	jmp	0x2824	; 0x2824 <__bad_interrupt>
      20:	0c 94 12 14 	jmp	0x2824	; 0x2824 <__bad_interrupt>
      24:	0c 94 12 14 	jmp	0x2824	; 0x2824 <__bad_interrupt>
      28:	0c 94 12 14 	jmp	0x2824	; 0x2824 <__bad_interrupt>
      2c:	0c 94 12 14 	jmp	0x2824	; 0x2824 <__bad_interrupt>
      30:	0c 94 12 14 	jmp	0x2824	; 0x2824 <__bad_interrupt>
      34:	0c 94 12 14 	jmp	0x2824	; 0x2824 <__bad_interrupt>
      38:	0c 94 12 14 	jmp	0x2824	; 0x2824 <__bad_interrupt>
      3c:	0c 94 12 14 	jmp	0x2824	; 0x2824 <__bad_interrupt>
      40:	0c 94 aa 1f 	jmp	0x3f54	; 0x3f54 <__vector_16>
      44:	0c 94 12 14 	jmp	0x2824	; 0x2824 <__bad_interrupt>
      48:	0c 94 12 14 	jmp	0x2824	; 0x2824 <__bad_interrupt>
      4c:	0c 94 12 14 	jmp	0x2824	; 0x2824 <__bad_interrupt>
      50:	0c 94 12 14 	jmp	0x2824	; 0x2824 <__bad_interrupt>
      54:	0c 94 12 14 	jmp	0x2824	; 0x2824 <__bad_interrupt>
      58:	0c 94 12 14 	jmp	0x2824	; 0x2824 <__bad_interrupt>
      5c:	0c 94 12 14 	jmp	0x2824	; 0x2824 <__bad_interrupt>
      60:	0c 94 12 14 	jmp	0x2824	; 0x2824 <__bad_interrupt>
      64:	0c 94 12 14 	jmp	0x2824	; 0x2824 <__bad_interrupt>

00000068 <__trampolines_end>:
      68:	ff e0       	ldi	r31, 0x0F	; 15
      6a:	ff d1       	rcall	.+1022   	; 0x46a <__LOCK_REGION_LENGTH__+0x6a>
      6c:	af ff       	.word	0xffaf	; ????
      6e:	32 ff       	sbrs	r19, 2
      70:	d0 ff       	sbrs	r29, 0
      72:	fe ff       	Address 0x00000072 is out of bounds.
.word	0xffff	; ????

00000073 <u8g_dev_ssd13xx_sleep_on>:
      73:	ff e0 ff d1 ae ff d0 ff fe                          .........

0000007c <u8g_dev_ssd1306_128x64_data_start>:
      7c:	ff e0 ff d1 10 00 ff fe                             ........

00000084 <u8g_dev_ssd1306_128x64_adafruit2_init_seq>:
      84:	ff d0 ff e0 ff c1 ff d1 ae d5 80 a8 3f d3 00 40     ............?..@
      94:	8d 14 20 00 a1 c8 da 12 81 cf d9 f1 db 40 2e a4     .. ..........@..
      a4:	a6 af ff d0 ff fe                                   ......

000000aa <u8g_font_fur35n>:
      aa:	00 41 40 fc f3 23 00 00 00 00 2a 3a 00 24 fa 23     .A@..#....*:.$.#
      ba:	00 13 13 39 1f 06 10 06 0c 00 1e 0f 00 0f 1e 00     ...9............
      ca:	0f 1e 00 07 1c 00 03 b8 00 01 b0 00 c1 f0 60 ff     ..............`.
      da:	ff e0 ff ff e0 f8 e3 e0 01 f0 00 03 b8 00 07 bc     ................
      ea:	00 07 1c 00 0f 1e 00 1e 0f 00 0e 0e 00 02 08 00     ................
      fa:	1d 1d 74 31 0a 00 00 07 00 00 00 07 00 00 00 07     ..t1............
     10a:	00 00 00 07 00 00 00 07 00 00 00 07 00 00 00 07     ................
     11a:	00 00 00 07 00 00 00 07 00 00 00 07 00 00 00 07     ................
     12a:	00 00 00 07 00 00 00 07 00 00 ff ff ff f8 ff ff     ................
     13a:	ff f8 ff ff ff f8 00 07 00 00 00 07 00 00 00 07     ................
     14a:	00 00 00 07 00 00 00 07 00 00 00 07 00 00 00 07     ................
     15a:	00 00 00 07 00 00 00 07 00 00 00 07 00 00 00 07     ................
     16a:	00 00 00 07 00 00 00 07 00 00 09 0c 18 0d 02 fa     ................
     17a:	1f 80 1f 00 1f 00 3e 00 3e 00 3e 00 3c 00 7c 00     ......>.>.>.<.|.
     18a:	78 00 78 00 70 00 f0 00 0c 04 08 10 02 0a ff f0     x.x.p...........
     19a:	ff f0 ff f0 ff f0 05 06 06 0d 05 00 f8 f8 f8 f8     ................
     1aa:	f8 f8 0f 27 4e 13 02 fd 00 0e 00 1e 00 1c 00 1c     ...'N...........
     1ba:	00 3c 00 38 00 38 00 78 00 70 00 70 00 70 00 f0     .<.8.8.x.p.p.p..
     1ca:	00 e0 00 e0 01 e0 01 c0 01 c0 01 c0 03 c0 03 80     ................
     1da:	03 80 07 80 07 00 07 00 0f 00 0f 00 0e 00 0e 00     ................
     1ea:	1e 00 1c 00 1c 00 3c 00 38 00 38 00 38 00 78 00     ......<.8.8.8.x.
     1fa:	70 00 70 00 f0 00 16 23 69 1b 02 01 03 ff 00 07     p.p....#i.......
     20a:	ff 80 1f ff e0 1f ff e0 3e 03 f0 3e 01 f0 7c 00     ........>..>..|.
     21a:	f8 78 00 f8 78 00 78 f8 00 78 f8 00 7c f8 00 7c     .x..x.x..x..|..|
     22a:	f8 00 7c f8 00 7c f8 00 7c f8 00 7c f8 00 7c f8     ..|..|..|..|..|.
     23a:	00 7c f8 00 7c f8 00 7c f8 00 7c f8 00 7c f8 00     .|..|..|..|..|..
     24a:	7c f8 00 7c 78 00 7c 78 00 78 78 00 78 7c 00 f8     |..|x.|x.xx.x|..
     25a:	3c 00 f8 3e 01 f0 3f 03 f0 1f ff e0 0f ff c0 07     <..>..?.........
     26a:	ff 80 01 ff 00 0c 23 46 1b 07 00 03 f0 07 f0 0f     ......#F........
     27a:	f0 1f f0 7f f0 ff f0 fd f0 f1 f0 c1 f0 01 f0 01     ................
     28a:	f0 01 f0 01 f0 01 f0 01 f0 01 f0 01 f0 01 f0 01     ................
     29a:	f0 01 f0 01 f0 01 f0 01 f0 01 f0 01 f0 01 f0 01     ................
     2aa:	f0 01 f0 01 f0 01 f0 01 f0 01 f0 01 f0 01 f0 01     ................
     2ba:	f0 15 23 69 1b 03 01 03 ff 00 0f ff 80 1f ff c0     ..#i............
     2ca:	3f ff e0 3f 01 f0 7e 00 f0 7c 00 f8 7c 00 f8 7c     ?..?..~..|..|..|
     2da:	00 f8 7c 00 f8 00 00 f8 00 00 f8 00 00 f0 00 01     ..|.............
     2ea:	f0 00 03 e0 00 07 e0 00 07 c0 00 0f 80 00 1f 80     ................
     2fa:	00 3f 00 00 7e 00 00 fc 00 01 f8 00 03 f0 00 07     .?..~...........
     30a:	e0 00 0f c0 00 1f c0 00 1f 80 00 3f 00 00 7e 00     ...........?..~.
     31a:	00 fc 00 00 ff ff f8 ff ff f8 ff ff f8 ff ff f8     ................
     32a:	16 23 69 1b 02 01 03 ff 00 0f ff c0 1f ff e0 1f     .#i.............
     33a:	ff f0 3f 01 f8 3e 00 f8 7c 00 78 7c 00 78 7c 00     ..?..>..|.x|.x|.
     34a:	7c 00 00 78 00 00 78 00 00 f8 00 01 f0 00 0f e0     |..x..x.........
     35a:	00 ff c0 00 ff 00 00 ff 80 00 ff c0 00 0f e0 00     ................
     36a:	01 f0 00 00 f8 00 00 f8 00 00 7c 00 00 7c 00 00     ..........|..|..
     37a:	7c f8 00 7c f8 00 7c fc 00 7c fc 00 78 7c 00 f8     |..|..|..|..x|..
     38a:	7f 03 f8 3f ff f0 1f ff e0 0f ff c0 03 ff 00 18     ...?............
     39a:	23 69 1b 01 00 00 03 f0 00 07 f0 00 07 f0 00 0f     #i..............
     3aa:	f0 00 1f f0 00 3f f0 00 3d f0 00 79 f0 00 f9 f0     .....?..=..y....
     3ba:	00 f1 f0 01 e1 f0 03 e1 f0 03 c1 f0 07 81 f0 0f     ................
     3ca:	81 f0 0f 01 f0 1e 01 f0 3e 01 f0 3c 01 f0 78 01     ........>..<..x.
     3da:	f0 f8 01 f0 f0 01 f0 ff ff ff ff ff ff ff ff ff     ................
     3ea:	ff ff ff 00 01 f0 00 01 f0 00 01 f0 00 01 f0 00     ................
     3fa:	01 f0 00 01 f0 00 01 f0 00 01 f0 00 01 f0 15 23     ...............#
     40a:	69 1b 03 00 7f ff e0 7f ff e0 7f ff e0 7f ff e0     i...............
     41a:	7c 00 00 7c 00 00 7c 00 00 7c 00 00 7c 00 00 7c     |..|..|..|..|..|
     42a:	00 00 7c 00 00 7c 00 00 7c fe 00 7d ff 80 7f ff     ..|..|..|..}....
     43a:	c0 7f 83 e0 7e 01 f0 7c 00 f0 78 00 f8 78 00 78     ....~..|..x..x.x
     44a:	00 00 78 00 00 78 00 00 78 00 00 78 00 00 78 00     ..x..x..x..x..x.
     45a:	00 78 f8 00 78 f8 00 f8 f8 00 f0 f8 01 f0 7e 03     .x..x.........~.
     46a:	e0 3f ff e0 3f ff c0 0f ff 80 07 fe 00 17 23 69     .?..?.........#i
     47a:	1b 02 01 01 ff 80 07 ff c0 0f ff e0 1f c1 f0 1f     ................
     48a:	00 f8 3e 00 f8 3e 00 78 7c 00 78 7c 00 00 78 00     ..>..>.x|.x|..x.
     49a:	00 78 00 00 78 00 00 78 00 00 78 7f 00 78 ff c0     .x..x..x..x..x..
     4aa:	f9 ff f0 fb ff f0 ff 83 f8 fe 00 f8 fc 00 7c fc     ..............|.
     4ba:	00 7c f8 00 3c f8 00 3c f8 00 3c f8 00 3e f8 00     .|..<..<..<..>..
     4ca:	3c f8 00 3c 78 00 3c 7c 00 7c 7c 00 78 3f 01 f8     <..<x.<|.||.x?..
     4da:	1f ff f0 0f ff e0 07 ff c0 01 ff 00 15 23 69 1b     .............#i.
     4ea:	03 00 ff ff f8 ff ff f8 ff ff f8 ff ff f8 00 00     ................
     4fa:	78 00 00 f8 00 00 f0 00 01 f0 00 01 f0 00 01 e0     x...............
     50a:	00 03 e0 00 03 e0 00 07 c0 00 07 c0 00 07 80 00     ................
     51a:	0f 80 00 0f 80 00 0f 00 00 1f 00 00 1f 00 00 3e     ...............>
     52a:	00 00 3e 00 00 3e 00 00 7c 00 00 7c 00 00 f8 00     ..>..>..|..|....
     53a:	00 f8 00 00 f8 00 01 f0 00 01 f0 00 03 f0 00 03     ................
     54a:	e0 00 03 e0 00 07 c0 00 07 c0 00 16 23 69 1b 02     ............#i..
     55a:	01 03 ff 80 0f ff e0 1f ff f0 3f ff f8 3f 01 f8     ..........?..?..
     56a:	7e 00 fc 7c 00 7c 7c 00 7c 7c 00 7c 7c 00 7c 7c     ~..|.||.||.||.||
     57a:	00 7c 3c 00 78 3e 00 f8 1f 83 f0 0f ff e0 03 ff     .|<.x>..........
     58a:	80 07 ff 80 0f ff e0 1f 03 f0 3e 00 f8 7c 00 78     ..........>..|.x
     59a:	78 00 7c f8 00 3c f8 00 3c f8 00 3c f8 00 3c f8     x.|..<..<..<..<.
     5aa:	00 3c f8 00 3c f8 00 7c 7c 00 7c 7e 01 f8 3f ff     .<..<..||.|~..?.
     5ba:	f8 1f ff f0 0f ff e0 03 ff 80 16 23 69 1b 02 01     ...........#i...
     5ca:	03 ff 80 0f ff c0 1f ff e0 3f ff f0 7e 01 f8 7c     .........?..~..|
     5da:	00 f8 78 00 f8 f8 00 7c f8 00 7c f8 00 7c f8 00     ..x....|..|..|..
     5ea:	7c f8 00 7c f8 00 7c f8 00 7c f8 00 fc 78 00 fc     |..|..|..|...x..
     5fa:	7c 01 fc 7f 03 fc 3f ff fc 1f ff 7c 0f fe 7c 03     |.....?....|..|.
     60a:	f8 7c 00 00 7c 00 00 7c 00 00 78 00 00 78 00 00     .|..|..|..x..x..
     61a:	f8 78 00 f8 78 01 f0 7c 01 f0 3e 03 e0 3f ff e0     .x..x..|..>..?..
     62a:	1f ff c0 0f ff 80 07 fe 00 05 18 18 0d 05 00 f8     ................
     63a:	f8 f8 f8 f8 f8 00 00 00 00 00 00 00 00 00 00 00     ................
     64a:	00 f8 f8 f8 f8 f8 f8                                .......

00000651 <u8g_font_6x12>:
     651:	01 06 0c 00 fe 07 01 35 02 6b 20 ff fe 0a fe 08     .......5.k .....
     661:	fe 0c 00 60 22 17 67 80 80 80 80 80 00 80 17 33     ...`".g........3
     671:	63 a0 a0 a0 02 56 66 50 f8 50 50 f8 50 01 59 69     c....VfP.PP.P.Yi
     681:	20 70 a8 a0 70 28 a8 70 20 02 57 67 c8 c8 10 20      p..p(.p .Wg... 
     691:	40 98 98 02 57 67 40 a0 a0 40 a8 90 68 27 13 63     @...Wg@..@..h'.c
     6a1:	80 80 80 11 39 69 20 40 40 80 80 80 40 40 20 11     ....9i @@...@@ .
     6b1:	39 69 80 40 40 20 20 20 40 40 80 02 57 67 20 a8     9i.@@   @@..Wg .
     6c1:	70 20 70 a8 20 03 55 65 20 20 f8 20 20 01 33 63     p p. .Ue  .  .3c
     6d1:	60 60 c0 05 51 61 f8 12 22 62 c0 c0 02 57 67 08     ``..Qa.."b...Wg.
     6e1:	10 10 20 40 40 80 12 47 67 60 90 90 90 90 90 60     .. @@..Gg`.....`
     6f1:	12 37 67 40 c0 40 40 40 40 e0 02 57 67 70 88 08     .7g@.@@@@..Wgp..
     701:	10 20 40 f8 02 57 67 f8 08 10 30 08 88 70 02 57     . @..Wg...0..p.W
     711:	67 10 30 50 90 f8 10 10 02 57 67 f8 80 f0 08 08     g.0P.....Wg.....
     721:	88 70 02 57 67 30 40 80 f0 88 88 70 02 57 67 f8     .p.Wg0@....p.Wg.
     731:	08 10 10 20 20 20 02 57 67 70 88 88 70 88 88 70     ...   .Wgp..p..p
     741:	02 57 67 70 88 88 78 08 10 60 12 25 65 c0 c0 00     .Wgp..x..`.%e...
     751:	c0 c0 01 36 66 60 60 00 60 60 c0 13 35 65 20 40     ...6f``.``..5e @
     761:	80 40 20 04 53 63 f8 00 f8 13 35 65 80 40 20 40     .@ .Sc....5e.@ @
     771:	80 02 57 67 70 88 10 20 20 00 20 02 57 67 70 88     ..Wgp..  . .Wgp.
     781:	b8 a8 b8 80 70 02 57 67 70 88 88 f8 88 88 88 02     ....p.Wgp.......
     791:	57 67 f0 48 48 70 48 48 f0 02 57 67 70 88 80 80     Wg.HHpHH..Wgp...
     7a1:	80 88 70 02 57 67 f0 48 48 48 48 48 f0 02 57 67     ..p.Wg.HHHHH..Wg
     7b1:	f8 80 80 f0 80 80 f8 02 57 67 f8 80 80 f0 80 80     ........Wg......
     7c1:	80 02 57 67 70 88 80 80 98 88 70 02 57 67 88 88     ..Wgp.....p.Wg..
     7d1:	88 f8 88 88 88 12 37 67 e0 40 40 40 40 40 e0 02     ......7g.@@@@@..
     7e1:	57 67 38 10 10 10 10 90 60 02 57 67 88 90 a0 c0     Wg8.....`.Wg....
     7f1:	a0 90 88 02 57 67 80 80 80 80 80 80 f8 02 57 67     ....Wg........Wg
     801:	88 d8 a8 88 88 88 88 02 57 67 88 88 c8 a8 98 88     ........Wg......
     811:	88 02 57 67 70 88 88 88 88 88 70 02 57 67 f0 88     ..Wgp.....p.Wg..
     821:	88 f0 80 80 80 02 57 67 70 88 88 88 a8 90 68 02     ......Wgp.....h.
     831:	57 67 f0 88 88 f0 a0 90 88 02 57 67 70 88 80 70     Wg........Wgp..p
     841:	08 88 70 02 57 67 f8 20 20 20 20 20 20 02 57 67     ..p.Wg.      .Wg
     851:	88 88 88 88 88 88 70 02 57 67 88 88 88 88 50 50     ......p.Wg....PP
     861:	20 02 57 67 88 88 88 88 a8 a8 50 02 57 67 88 88      .Wg......P.Wg..
     871:	50 20 50 88 88 02 57 67 88 88 50 20 20 20 20 02     P P...Wg..P    .
     881:	57 67 f8 08 10 20 40 80 f8 11 39 69 e0 80 80 80     Wg... @...9i....
     891:	80 80 80 80 e0 02 57 67 80 40 40 20 10 10 08 11     ......Wg.@@ ....
     8a1:	39 69 e0 20 20 20 20 20 20 20 e0 07 53 63 20 50     9i.       ..Sc P
     8b1:	88 00 51 61 f8 17 33 63 80 40 20 02 55 65 70 08     ..Qa..3c.@ .Uep.
     8c1:	78 88 78 02 57 67 80 80 f0 88 88 88 f0 02 55 65     x.x.Wg........Ue
     8d1:	70 88 80 88 70 02 57 67 08 08 78 88 88 88 78 02     p...p.Wg..x...x.
     8e1:	55 65 70 88 f0 80 70 02 57 67 30 48 40 e0 40 40     Uep...p.Wg0H@.@@
     8f1:	40 00 57 67 70 88 88 88 78 08 70 02 57 67 80 80     @.Wgp...x.p.Wg..
     901:	f0 88 88 88 88 12 37 67 40 00 c0 40 40 40 e0 10     ......7g@..@@@..
     911:	49 69 10 00 30 10 10 10 10 90 60 02 57 67 80 80     Ii..0.....`.Wg..
     921:	88 90 e0 90 88 12 37 67 c0 40 40 40 40 40 e0 02     ......7g.@@@@@..
     931:	55 65 d0 a8 a8 a8 a8 02 55 65 b0 c8 88 88 88 02     Ue......Ue......
     941:	55 65 70 88 88 88 70 00 57 67 f0 88 88 88 f0 80     Uep...p.Wg......
     951:	80 00 57 67 78 88 88 88 78 08 08 02 55 65 b0 c8     ..Wgx...x...Ue..
     961:	80 80 80 02 55 65 78 80 70 08 f0 02 57 67 20 20     ....Uex.p...Wg  
     971:	f8 20 20 20 18 02 55 65 88 88 88 98 68 02 55 65     .   ..Ue....h.Ue
     981:	88 88 88 50 20 02 55 65 88 88 a8 a8 50 02 55 65     ...P .Ue....P.Ue
     991:	88 50 20 50 88 00 57 67 88 88 88 50 20 40 80 02     .P P..Wg...P @..
     9a1:	55 65 f8 10 20 40 f8 11 39 69 20 40 40 40 80 40     Ue.. @..9i @@@.@
     9b1:	40 40 20 21 19 69 80 80 80 80 80 80 80 80 80 11     @@ !.i..........
     9c1:	39 69 80 40 40 40 20 40 40 40 80 04 53 63 48 a8     9i.@@@ @@@..ScH.
     9d1:	90 ff ff ff ff ff ff ff ff ff ff ff ff ff ff ff     ................
     9e1:	ff ff ff ff ff ff ff ff ff ff ff ff ff ff ff ff     ................
     9f1:	ff ff 0c 00 60 22 17 67 80 00 80 80 80 80 80 01     ....`".g........
     a01:	57 67 20 70 a8 a0 a8 70 20 02 57 67 30 48 40 e0     Wg p...p .Wg0H@.
     a11:	40 48 b0 02 55 65 a8 50 88 50 a8 02 57 67 88 50     @H..Ue.P.P..Wg.P
     a21:	f8 20 f8 20 20 22 17 67 80 80 80 00 80 80 80 12     . .  ".g........
     a31:	48 68 70 80 60 90 90 60 10 e0 19 31 61 a0 02 67     Hhp.`..`...1a..g
     a41:	67 78 84 94 a4 94 84 78 16 35 65 60 a0 60 00 e0     gx.....x.5e`.`..
     a51:	02 55 65 28 50 a0 50 28 03 53 63 f8 08 08 15 31     .Ue(P.P(.Sc....1
     a61:	61 e0 02 67 67 78 84 b4 a4 a4 84 78 09 51 61 f8     a..ggx.....x.Qa.
     a71:	17 44 64 60 90 90 60 02 57 67 20 20 f8 20 20 00     .Dd`..`.Wg  .  .
     a81:	f8 17 35 65 40 a0 20 40 e0 17 35 65 c0 20 40 20     ..5e@. @..5e. @ 
     a91:	c0 17 33 63 20 40 80 00 57 67 88 88 88 98 e8 80     ..3c @..Wg......
     aa1:	80 02 58 68 78 e8 e8 e8 68 28 28 28 25 22 62 c0     ..Xhx...h(((%"b.
     ab1:	c0 10 32 62 20 c0 17 35 65 40 c0 40 40 e0 17 35     ..2b ..5e@.@@..5
     ac1:	65 40 a0 40 00 e0 02 55 65 a0 50 28 50 a0 02 5a     e@.@...Ue.P(P..Z
     ad1:	6a 40 c0 40 40 50 30 50 78 10 10 02 5a 6a 40 c0     j@.@@P0Px...Zj@.
     ae1:	40 40 50 28 08 10 20 38 02 5a 6a c0 20 40 20 d0     @@P(.. 8.Zj. @ .
     af1:	30 50 78 10 10 02 57 67 20 00 20 20 40 88 70 02     0Px...Wg .  @.p.
     b01:	5a 6a 40 20 00 70 88 88 f8 88 88 88 02 5a 6a 10     Zj@ .p.......Zj.
     b11:	20 00 70 88 88 f8 88 88 88 02 5a 6a 20 50 00 70      .p.......Zj P.p
     b21:	88 88 f8 88 88 88 02 5a 6a 68 b0 00 70 88 88 f8     .......Zjh..p...
     b31:	88 88 88 02 59 69 50 00 70 88 88 f8 88 88 88 02     ....YiP.p.......
     b41:	5a 6a 20 50 20 70 88 88 f8 88 88 88 02 57 67 78     Zj P p.......Wgx
     b51:	a0 a0 f0 a0 a0 b8 00 59 69 70 88 80 80 80 88 70     .......Yip.....p
     b61:	10 60 02 5a 6a 40 20 00 f8 80 80 f0 80 80 f8 02     .`.Zj@ .........
     b71:	5a 6a 10 20 00 f8 80 80 f0 80 80 f8 02 5a 6a 20     Zj. .........Zj 
     b81:	50 00 f8 80 80 f0 80 80 f8 02 59 69 50 00 f8 80     P.........YiP...
     b91:	80 f0 80 80 f8 12 3a 6a 80 40 00 e0 40 40 40 40     ......:j.@..@@@@
     ba1:	40 e0 12 3a 6a 20 40 00 e0 40 40 40 40 40 e0 12     @..:j @..@@@@@..
     bb1:	3a 6a 40 a0 00 e0 40 40 40 40 40 e0 12 39 69 a0     :j@...@@@@@..9i.
     bc1:	00 e0 40 40 40 40 40 e0 02 57 67 70 48 48 e8 48     ..@@@@@..WgpHH.H
     bd1:	48 70 02 5a 6a 68 b0 00 88 88 c8 a8 98 88 88 02     Hp.Zjh..........
     be1:	5a 6a 40 20 00 70 88 88 88 88 88 70 02 5a 6a 10     Zj@ .p.....p.Zj.
     bf1:	20 00 70 88 88 88 88 88 70 02 5a 6a 20 50 00 70      .p.....p.Zj P.p
     c01:	88 88 88 88 88 70 02 5a 6a 68 b0 00 70 88 88 88     .....p.Zjh..p...
     c11:	88 88 70 02 59 69 50 00 70 88 88 88 88 88 70 03     ..p.YiP.p.....p.
     c21:	55 65 88 50 20 50 88 01 59 69 08 70 98 a8 a8 a8     Ue.P P..Yi.p....
     c31:	c8 70 80 02 5a 6a 40 20 00 88 88 88 88 88 88 70     .p..Zj@ .......p
     c41:	02 5a 6a 10 20 00 88 88 88 88 88 88 70 02 5a 6a     .Zj. .......p.Zj
     c51:	20 50 00 88 88 88 88 88 88 70 02 59 69 50 00 88      P.......p.YiP..
     c61:	88 88 88 88 88 70 02 5a 6a 10 20 00 88 88 50 20     .....p.Zj. ...P 
     c71:	20 20 20 12 47 67 80 e0 90 90 90 e0 80 02 57 67        .Gg........Wg
     c81:	70 88 90 a0 90 88 b0 02 58 68 40 20 00 70 08 78     p.......Xh@ .p.x
     c91:	88 78 02 58 68 10 20 00 70 08 78 88 78 02 58 68     .x.Xh. .p.x.x.Xh
     ca1:	20 50 00 70 08 78 88 78 02 58 68 68 b0 00 70 08      P.p.x.x.Xhh..p.
     cb1:	78 88 78 02 57 67 50 00 70 08 78 88 78 02 58 68     x.x.WgP.p.x.x.Xh
     cc1:	20 50 20 70 08 78 88 78 02 55 65 70 28 70 a0 78      P p.x.x.Uep(p.x
     cd1:	00 57 67 70 88 80 88 70 10 60 02 58 68 40 20 00     .Wgp...p.`.Xh@ .
     ce1:	70 88 f0 80 70 02 58 68 10 20 00 70 88 f0 80 70     p...p.Xh. .p...p
     cf1:	02 58 68 20 50 00 70 88 f0 80 70 02 57 67 50 00     .Xh P.p...p.WgP.
     d01:	70 88 f0 80 70 12 38 68 80 40 00 c0 40 40 40 e0     p...p.8h.@..@@@.
     d11:	12 38 68 20 40 00 c0 40 40 40 e0 12 38 68 40 a0     .8h @..@@@..8h@.
     d21:	00 c0 40 40 40 e0 12 37 67 a0 00 c0 40 40 40 e0     ..@@@..7g...@@@.
     d31:	02 59 69 50 20 50 08 78 88 88 88 70 02 58 68 68     .YiP P.x...p.Xhh
     d41:	b0 00 b0 c8 88 88 88 02 58 68 40 20 00 70 88 88     ........Xh@ .p..
     d51:	88 70 02 58 68 10 20 00 70 88 88 88 70 02 58 68     .p.Xh. .p...p.Xh
     d61:	20 50 00 70 88 88 88 70 02 58 68 68 b0 00 70 88      P.p...p.Xhh..p.
     d71:	88 88 70 02 57 67 50 00 70 88 88 88 70 03 55 65     ..p.WgP.p...p.Ue
     d81:	20 00 f8 00 20 02 55 65 78 98 a8 c8 f0 02 58 68      ... .Uex.....Xh
     d91:	40 20 00 88 88 88 88 70 02 58 68 10 20 00 88 88     @ .....p.Xh. ...
     da1:	88 88 70 02 58 68 20 50 00 88 88 88 88 70 02 57     ..p.Xh P.....p.W
     db1:	67 50 00 88 88 88 88 70 00 5a 6a 10 20 00 88 88     gP.....p.Zj. ...
     dc1:	88 50 20 40 80 00 59 69 80 80 f0 88 88 88 f0 80     .P @..Yi........
     dd1:	80 00 59 69 50 00 88 88 88 50 20 40 80              ..YiP....P @.

00000dde <u8g_font_6x10>:
     dde:	01 06 0a 00 fe 07 01 36 02 68 20 ff fe 08 fe 07     .......6.h .....
     dee:	fe 0a 00 60 22 17 67 80 80 80 80 80 00 80 16 33     ...`".g........3
     dfe:	63 a0 a0 a0 02 57 67 50 50 f8 50 f8 50 50 02 57     c....WgPP.P.PP.W
     e0e:	67 20 70 a0 70 28 70 20 02 57 67 48 a8 50 20 50     g p.p(p .WgH.P P
     e1e:	a8 90 02 57 67 40 a0 a0 40 a8 90 68 26 13 63 80     ...Wg@..@..h&.c.
     e2e:	80 80 12 37 67 20 40 80 80 80 40 20 12 37 67 80     ...7g @...@ .7g.
     e3e:	40 20 20 20 40 80 03 55 65 88 50 f8 50 88 03 55     @   @..Ue.P.P..U
     e4e:	65 20 20 f8 20 20 11 33 63 60 40 80 05 51 61 f8     e  .  .3c`@..Qa.
     e5e:	11 33 63 40 e0 40 02 57 67 08 08 10 20 40 80 80     .3c@.@.Wg... @..
     e6e:	02 57 67 20 50 88 88 88 50 20 02 57 67 20 60 a0     .Wg P...P .Wg `.
     e7e:	20 20 20 f8 02 57 67 70 88 08 30 40 80 f8 02 57        ..Wgp..0@...W
     e8e:	67 f8 08 10 30 08 88 70 02 57 67 10 30 50 90 f8     g...0..p.Wg.0P..
     e9e:	10 10 02 57 67 f8 80 b0 c8 08 88 70 02 57 67 30     ...Wg......p.Wg0
     eae:	40 80 b0 c8 88 70 02 57 67 f8 08 10 10 20 40 40     @....p.Wg.... @@
     ebe:	02 57 67 70 88 88 70 88 88 70 02 57 67 70 88 98     .Wgp..p..p.Wgp..
     ece:	68 08 10 60 11 37 67 40 e0 40 00 40 e0 40 11 37     h..`.7g@.@.@.@.7
     ede:	67 40 e0 40 00 60 40 80 12 47 67 10 20 40 80 40     g@.@.`@..Gg. @.@
     eee:	20 10 04 53 63 f8 00 f8 12 47 67 80 40 20 10 20      ..Sc....Gg.@ . 
     efe:	40 80 02 57 67 70 88 10 20 20 00 20 02 57 67 70     @..Wgp..  . .Wgp
     f0e:	88 98 a8 b0 80 70 02 57 67 20 50 88 88 f8 88 88     .....p.Wg P.....
     f1e:	02 57 67 f0 48 48 70 48 48 f0 02 57 67 70 88 80     .Wg.HHpHH..Wgp..
     f2e:	80 80 88 70 02 57 67 f0 48 48 48 48 48 f0 02 57     ...p.Wg.HHHHH..W
     f3e:	67 f8 80 80 f0 80 80 f8 02 57 67 f8 80 80 f0 80     g........Wg.....
     f4e:	80 80 02 57 67 70 88 80 80 98 88 70 02 57 67 88     ...Wgp.....p.Wg.
     f5e:	88 88 f8 88 88 88 12 37 67 e0 40 40 40 40 40 e0     .......7g.@@@@@.
     f6e:	02 57 67 38 10 10 10 10 90 60 02 57 67 88 90 a0     .Wg8.....`.Wg...
     f7e:	c0 a0 90 88 02 57 67 80 80 80 80 80 80 f8 02 57     .....Wg........W
     f8e:	67 88 88 d8 a8 88 88 88 02 57 67 88 88 c8 a8 98     g........Wg.....
     f9e:	88 88 02 57 67 70 88 88 88 88 88 70 02 57 67 f0     ...Wgp.....p.Wg.
     fae:	88 88 f0 80 80 80 01 58 68 70 88 88 88 88 a8 70     .......Xhp.....p
     fbe:	08 02 57 67 f0 88 88 f0 a0 90 88 02 57 67 70 88     ..Wg........Wgp.
     fce:	80 70 08 88 70 02 57 67 f8 20 20 20 20 20 20 02     .p..p.Wg.      .
     fde:	57 67 88 88 88 88 88 88 70 02 57 67 88 88 88 50     Wg......p.Wg...P
     fee:	50 50 20 02 57 67 88 88 88 a8 a8 d8 88 02 57 67     PP .Wg........Wg
     ffe:	88 88 50 20 50 88 88 02 57 67 88 88 50 20 20 20     ..P P...Wg..P   
    100e:	20 02 57 67 f8 08 10 20 40 80 f8 12 37 67 e0 80      .Wg... @...7g..
    101e:	80 80 80 80 e0 02 57 67 80 80 40 20 10 08 08 12     ......Wg..@ ....
    102e:	37 67 e0 20 20 20 20 20 e0 06 53 63 20 50 88 01     7g.     ..Sc P..
    103e:	51 61 f8 28 22 62 80 40 02 55 65 70 08 78 88 78     Qa.("b.@.Uep.x.x
    104e:	02 57 67 80 80 b0 c8 88 c8 b0 02 55 65 70 88 80     .Wg........Uep..
    105e:	88 70 02 57 67 08 08 68 98 88 98 68 02 55 65 70     .p.Wg..h...h.Uep
    106e:	88 f8 80 70 02 57 67 30 48 40 f0 40 40 40 00 57     ...p.Wg0H@.@@@.W
    107e:	67 78 88 88 78 08 88 70 02 57 67 80 80 b0 c8 88     gx..x..p.Wg.....
    108e:	88 88 12 37 67 40 00 c0 40 40 40 e0 10 49 69 10     ...7g@..@@@..Ii.
    109e:	00 30 10 10 10 90 90 60 02 57 67 80 80 88 90 e0     .0.....`.Wg.....
    10ae:	90 88 12 37 67 c0 40 40 40 40 40 e0 02 55 65 d0     ...7g.@@@@@..Ue.
    10be:	a8 a8 a8 88 02 55 65 b0 c8 88 88 88 02 55 65 70     .....Ue......Uep
    10ce:	88 88 88 70 00 57 67 b0 c8 88 c8 b0 80 80 00 57     ...p.Wg........W
    10de:	67 68 98 88 98 68 08 08 02 55 65 b0 c8 80 80 80     gh...h...Ue.....
    10ee:	02 55 65 70 80 70 08 f0 02 57 67 40 40 f0 40 40     .Uep.p...Wg@@.@@
    10fe:	48 30 02 55 65 88 88 88 98 68 02 55 65 88 88 50     H0.Ue....h.Ue..P
    110e:	50 20 02 55 65 88 88 a8 a8 50 02 55 65 88 50 20     P .Ue....P.Ue.P 
    111e:	50 88 00 57 67 88 88 98 68 08 88 70 02 55 65 f8     P..Wg...h..p.Ue.
    112e:	10 20 40 f8 12 47 67 30 40 20 c0 20 40 30 22 17     . @..Gg0@ . @0".
    113e:	67 80 80 80 80 80 80 80 12 47 67 c0 20 40 30 40     g........Gg. @0@
    114e:	20 c0 06 53 63 48 a8 90 ff ff ff ff ff ff ff ff      ..ScH..........
    115e:	ff ff ff ff ff ff ff ff ff ff ff ff ff ff ff ff     ................
    116e:	ff ff ff ff ff ff ff ff ff 0a 00 60 22 17 67 80     ...........`".g.
    117e:	00 80 80 80 80 80 01 57 67 20 78 a0 a0 a0 78 20     .......Wg x...x 
    118e:	02 57 67 30 48 40 e0 40 48 b0 02 55 65 88 70 50     .Wg0H@.@H..Ue.pP
    119e:	70 88 01 58 68 88 88 50 20 f8 20 20 20 22 17 67     p..Xh..P .   ".g
    11ae:	80 80 80 00 80 80 80 01 58 68 70 80 e0 90 48 38     ........Xhp...H8
    11be:	08 70 19 31 61 a0 02 57 67 70 88 a8 c8 a8 88 70     .p.1a..Wgp.....p
    11ce:	13 46 66 70 90 b0 50 00 f0 02 65 65 24 48 90 48     .Ffp..P...ee$H.H
    11de:	24 14 42 62 f0 10 15 41 61 f0 02 57 67 70 88 e8     $.Bb...Aa..Wgp..
    11ee:	c8 c8 88 70 09 51 61 f8 16 33 63 40 a0 40 02 56     ...p.Qa..3c@.@.V
    11fe:	66 20 20 f8 20 20 f8 15 45 65 60 90 20 40 f0 15     f  .  ..Ee`. @..
    120e:	45 65 e0 10 60 10 e0 28 22 62 40 80 01 56 66 88     Ee..`..("b@..Vf.
    121e:	88 88 c8 b0 80 02 57 67 78 e8 e8 68 28 28 28 25     ......Wgx..h(((%
    122e:	11 61 80 20 22 62 40 80 15 35 65 40 c0 40 40 e0     .a. "b@..5e@.@@.
    123e:	13 46 66 60 90 90 60 00 f0 02 65 65 90 48 24 48     .Ff`..`...ee.H$H
    124e:	90 01 69 69 40 c0 40 40 e4 0c 14 3c 04 01 69 69     ..ii@.@@...<..ii
    125e:	40 c0 40 40 e8 14 04 08 1c 01 59 69 c0 20 40 20     @.@@......Yi. @ 
    126e:	c8 18 28 78 08 02 57 67 20 00 20 20 40 88 70 02     ..(x..Wg .  @.p.
    127e:	58 68 40 20 70 88 88 f8 88 88 02 58 68 10 20 70     Xh@ p......Xh. p
    128e:	88 88 f8 88 88 02 58 68 20 50 70 88 88 f8 88 88     ......Xh Pp.....
    129e:	02 58 68 48 b0 70 88 88 f8 88 88 02 58 68 50 00     .XhH.p......XhP.
    12ae:	70 88 88 f8 88 88 02 58 68 20 50 70 88 88 f8 88     p......Xh Pp....
    12be:	88 02 67 67 3c 50 90 9c f0 90 9c 00 59 69 70 88     ..gg<P......Yip.
    12ce:	80 80 80 88 70 20 40 02 58 68 40 f8 80 80 f0 80     ....p @.Xh@.....
    12de:	80 f8 02 58 68 10 f8 80 80 f0 80 80 f8 02 58 68     ...Xh.........Xh
    12ee:	20 f8 80 80 f0 80 80 f8 02 58 68 50 f8 80 80 f0      ........XhP....
    12fe:	80 80 f8 12 38 68 80 40 e0 40 40 40 40 e0 12 38     ....8h.@.@@@@..8
    130e:	68 20 40 e0 40 40 40 40 e0 12 38 68 40 a0 e0 40     h @.@@@@..8h@..@
    131e:	40 40 40 e0 12 38 68 a0 00 e0 40 40 40 40 e0 02     @@@..8h...@@@@..
    132e:	57 67 f0 48 48 e8 48 48 f0 02 58 68 28 50 88 c8     Wg.HH.HH..Xh(P..
    133e:	a8 98 88 88 02 58 68 40 20 70 88 88 88 88 70 02     .....Xh@ p....p.
    134e:	58 68 10 20 70 88 88 88 88 70 02 58 68 20 50 70     Xh. p....p.Xh Pp
    135e:	88 88 88 88 70 02 58 68 28 50 70 88 88 88 88 70     ....p.Xh(Pp....p
    136e:	02 58 68 50 00 70 88 88 88 88 70 02 55 65 88 50     .XhP.p....p.Ue.P
    137e:	20 50 88 02 57 67 70 98 98 a8 c8 c8 70 02 58 68      P..Wgp.....p.Xh
    138e:	40 20 88 88 88 88 88 70 02 58 68 10 20 88 88 88     @ .....p.Xh. ...
    139e:	88 88 70 02 58 68 20 50 00 88 88 88 88 70 02 58     ..p.Xh P.....p.X
    13ae:	68 50 00 88 88 88 88 88 70 02 58 68 10 20 88 88     hP......p.Xh. ..
    13be:	50 20 20 20 02 57 67 80 f0 88 f0 80 80 80 02 57     P   .Wg........W
    13ce:	67 70 88 90 a0 90 88 b0 02 58 68 40 20 00 70 08     gp.......Xh@ .p.
    13de:	78 88 78 02 58 68 10 20 00 70 08 78 88 78 02 58     x.x.Xh. .p.x.x.X
    13ee:	68 20 50 00 70 08 78 88 78 02 58 68 28 50 00 70     h P.p.x.x.Xh(P.p
    13fe:	08 78 88 78 02 57 67 50 00 70 08 78 88 78 02 58     .x.x.WgP.p.x.x.X
    140e:	68 20 50 20 70 08 78 88 78 02 65 65 78 14 7c 90     h P p.x.x.eex.|.
    141e:	7c 00 57 67 70 88 80 88 70 20 40 02 58 68 40 20     |.Wgp...p @.Xh@ 
    142e:	00 70 88 f8 80 70 02 58 68 10 20 00 70 88 f8 80     .p...p.Xh. .p...
    143e:	70 02 58 68 20 50 00 70 88 f8 80 70 02 57 67 50     p.Xh P.p...p.WgP
    144e:	00 70 88 f8 80 70 12 38 68 80 40 00 c0 40 40 40     .p...p.8h.@..@@@
    145e:	e0 12 38 68 40 80 00 c0 40 40 40 e0 12 38 68 40     ..8h@...@@@..8h@
    146e:	a0 00 c0 40 40 40 e0 12 37 67 a0 00 c0 40 40 40     ...@@@..7g...@@@
    147e:	e0 02 57 67 c0 30 70 88 88 88 70 02 58 68 28 50     ..Wg.0p...p.Xh(P
    148e:	00 b0 c8 88 88 88 02 58 68 40 20 00 70 88 88 88     .......Xh@ .p...
    149e:	70 02 58 68 10 20 00 70 88 88 88 70 02 58 68 20     p.Xh. .p...p.Xh 
    14ae:	50 00 70 88 88 88 70 02 58 68 28 50 00 70 88 88     P.p...p.Xh(P.p..
    14be:	88 70 02 57 67 50 00 70 88 88 88 70 03 55 65 20     .p.WgP.p...p.Ue 
    14ce:	00 f8 00 20 02 55 65 78 98 a8 c8 f0 02 58 68 40     ... .Uex.....Xh@
    14de:	20 00 88 88 88 98 68 02 58 68 10 20 00 88 88 88      .....h.Xh. ....
    14ee:	98 68 02 58 68 20 50 00 88 88 88 98 68 02 57 67     .h.Xh P.....h.Wg
    14fe:	50 00 88 88 88 98 68 00 59 69 10 20 88 88 98 68     P.....h.Yi. ...h
    150e:	08 88 70 00 58 68 80 f0 88 88 88 f0 80 80 00 59     ..p.Xh.........Y
    151e:	69 50 00 88 88 98 68 08 88 70                       iP....h..p

00001528 <u8g_font_10x20>:
    1528:	00 0a 14 00 fc 0d 02 4a 04 99 20 ff fc 10 fc 0d     .......J.. .....
    1538:	fc 00 00 00 0a 00 10 02 0d 0d 0a 04 00 c0 c0 c0     ................
    1548:	c0 c0 c0 c0 c0 c0 c0 00 c0 c0 06 04 04 0a 02 09     ................
    1558:	cc cc cc 48 09 0b 16 0a 01 01 1b 00 1b 00 1b 00     ...H............
    1568:	7f 80 36 00 36 00 36 00 ff 00 6c 00 6c 00 6c 00     ..6.6.6...l.l.l.
    1578:	08 0d 0d 0a 01 00 18 7e db d8 d8 d8 7e 1b 1b 1b     .......~....~...
    1588:	db 7e 18 09 0c 18 0a 01 00 73 00 db 00 de 00 76     .~.......s.....v
    1598:	00 0c 00 0c 00 18 00 18 00 37 00 3d 80 6d 80 67     .........7.=.m.g
    15a8:	00 09 0d 1a 0a 01 00 38 00 6c 00 6c 00 6c 00 78     .......8.l.l.l.x
    15b8:	00 30 00 70 00 d8 00 cd 80 c7 00 c6 00 ef 00 79     .0.p...........y
    15c8:	80 02 05 05 0a 04 08 c0 c0 c0 c0 80 05 0d 0d 0a     ................
    15d8:	03 00 18 30 60 60 c0 c0 c0 c0 c0 60 60 30 18 05     ...0``.....``0..
    15e8:	0d 0d 0a 02 00 c0 60 30 30 18 18 18 18 18 30 30     ......`00.....00
    15f8:	60 c0 08 07 07 0a 01 03 66 66 3c ff 3c 66 66 08     `.......ff<.<ff.
    1608:	07 07 0a 01 03 18 18 18 ff 18 18 18 04 03 03 0a     ................
    1618:	03 ff 70 70 e0 08 01 01 0a 01 06 ff 03 03 03 0a     ..pp............
    1628:	04 00 e0 e0 e0 07 0c 0c 0a 02 00 06 06 0c 0c 18     ................
    1638:	18 30 30 60 60 c0 c0 08 0d 0d 0a 01 00 18 3c 66     .00``.........<f
    1648:	66 c3 c3 c3 c3 c3 66 66 3c 18 08 0d 0d 0a 01 00     f.....ff<.......
    1658:	18 38 78 d8 18 18 18 18 18 18 18 18 ff 08 0d 0d     .8x.............
    1668:	0a 01 00 3c 66 c3 c3 03 03 06 1c 30 60 c0 c0 ff     ...<f......0`...
    1678:	08 0d 0d 0a 01 00 3c 66 c3 c3 03 06 1c 06 03 c3     ......<f........
    1688:	c3 66 3c 08 0d 0d 0a 01 00 02 06 0e 1e 36 66 c6     .f<..........6f.
    1698:	c6 ff 06 06 06 06 08 0d 0d 0a 01 00 ff c0 c0 c0     ................
    16a8:	c0 dc e6 03 03 03 c3 66 3c 08 0d 0d 0a 01 00 3c     .......f<......<
    16b8:	66 c2 c0 c0 dc e6 c3 c3 c3 c3 66 3c 08 0d 0d 0a     f.........f<....
    16c8:	01 00 ff 03 03 06 06 0c 0c 18 18 30 30 60 60 08     ...........00``.
    16d8:	0d 0d 0a 01 00 3c 66 c3 c3 c3 66 3c 66 c3 c3 c3     .....<f...f<f...
    16e8:	66 3c 08 0d 0d 0a 01 00 3c 66 c3 c3 c3 c3 67 3b     f<......<f....g;
    16f8:	03 03 43 66 3c 03 08 08 0a 04 00 e0 e0 00 00 00     ..Cf<...........
    1708:	00 e0 e0 04 09 09 0a 03 ff 70 70 00 00 00 00 70     .........pp....p
    1718:	70 e0 07 0d 0d 0a 01 00 02 06 0c 18 30 60 c0 60     p...........0`.`
    1728:	30 18 0c 06 02 08 06 06 0a 01 03 ff 00 00 00 00     0...............
    1738:	ff 07 0d 0d 0a 02 00 80 c0 60 30 18 0c 06 0c 18     .........`0.....
    1748:	30 60 c0 80 08 0d 0d 0a 01 00 3c 66 c3 c3 c3 06     0`........<f....
    1758:	0c 18 18 18 00 18 18 08 0d 0d 0a 01 00 3c 66 c3     .............<f.
    1768:	cf df db db db de cc c0 63 3e 08 0d 0d 0a 01 00     ........c>......
    1778:	18 3c 66 66 c3 c3 c3 ff c3 c3 c3 c3 c3 08 0d 0d     .<ff............
    1788:	0a 01 00 f8 cc c6 c6 c6 cc fc c6 c3 c3 c3 c6 fc     ................
    1798:	08 0d 0d 0a 01 00 3c 66 c3 c0 c0 c0 c0 c0 c0 c0     ......<f........
    17a8:	c3 66 3c 08 0d 0d 0a 01 00 fc c6 c3 c3 c3 c3 c3     .f<.............
    17b8:	c3 c3 c3 c3 c6 fc 08 0d 0d 0a 01 00 ff c0 c0 c0     ................
    17c8:	c0 c0 fc c0 c0 c0 c0 c0 ff 08 0d 0d 0a 01 00 ff     ................
    17d8:	c0 c0 c0 c0 c0 fc c0 c0 c0 c0 c0 c0 08 0d 0d 0a     ................
    17e8:	01 00 3c 66 c3 c0 c0 c0 cf c3 c3 c3 c3 67 3d 08     ..<f.........g=.
    17f8:	0d 0d 0a 01 00 c3 c3 c3 c3 c3 c3 ff c3 c3 c3 c3     ................
    1808:	c3 c3 08 0d 0d 0a 01 00 ff 18 18 18 18 18 18 18     ................
    1818:	18 18 18 18 ff 09 0d 1a 0a 01 00 1f 80 06 00 06     ................
    1828:	00 06 00 06 00 06 00 06 00 06 00 06 00 c6 00 c6     ................
    1838:	00 6c 00 38 00 08 0d 0d 0a 01 00 c3 c3 c6 c6 cc     .l.8............
    1848:	cc f8 cc cc c6 c6 c3 c3 08 0d 0d 0a 01 00 c0 c0     ................
    1858:	c0 c0 c0 c0 c0 c0 c0 c0 c0 c0 ff 08 0d 0d 0a 01     ................
    1868:	00 c3 c3 e7 e7 ff db db db db c3 c3 c3 c3 08 0d     ................
    1878:	0d 0a 01 00 c3 e3 e3 f3 f3 db db cf cf c7 c7 c3     ................
    1888:	c3 08 0d 0d 0a 01 00 3c 66 c3 c3 c3 c3 c3 c3 c3     .......<f.......
    1898:	c3 c3 66 3c 08 0d 0d 0a 01 00 fc c6 c3 c3 c3 c3     ..f<............
    18a8:	c6 fc c0 c0 c0 c0 c0 08 0e 0e 0a 01 ff 3c 66 c3     .............<f.
    18b8:	c3 c3 c3 c3 c3 c3 db cf 66 3e 03 08 0d 0d 0a 01     ........f>......
    18c8:	00 fc c6 c3 c3 c3 c3 c6 fc cc c6 c6 c3 c3 08 0d     ................
    18d8:	0d 0a 01 00 3c 66 c3 c0 c0 60 3c 06 03 03 c3 66     ....<f...`<....f
    18e8:	3c 08 0d 0d 0a 01 00 ff 18 18 18 18 18 18 18 18     <...............
    18f8:	18 18 18 18 08 0d 0d 0a 01 00 c3 c3 c3 c3 c3 c3     ................
    1908:	c3 c3 c3 c3 c3 66 3c 08 0d 0d 0a 01 00 c3 c3 c3     .....f<.........
    1918:	c3 66 66 66 3c 3c 3c 18 18 18 08 0d 0d 0a 01 00     .fff<<<.........
    1928:	c3 c3 c3 c3 c3 db db db db e7 e7 c3 c3 08 0d 0d     ................
    1938:	0a 01 00 c3 c3 66 66 3c 3c 18 3c 3c 66 66 c3 c3     .....ff<<.<<ff..
    1948:	08 0d 0d 0a 01 00 c3 c3 66 66 3c 3c 18 18 18 18     ........ff<<....
    1958:	18 18 18 08 0d 0d 0a 01 00 ff 03 03 06 0c 0c 18     ................
    1968:	30 30 60 c0 c0 ff 06 0d 0d 0a 02 00 fc c0 c0 c0     00`.............
    1978:	c0 c0 c0 c0 c0 c0 c0 c0 fc 07 0c 0c 0a 02 00 c0     ................
    1988:	c0 60 60 30 30 18 18 0c 0c 06 06 06 0d 0d 0a 02     .``00...........
    1998:	00 fc 0c 0c 0c 0c 0c 0c 0c 0c 0c 0c 0c fc 08 04     ................
    19a8:	04 0a 01 09 18 3c 66 c3 09 01 02 0a 01 ff ff 80     .....<f.........
    19b8:	04 03 03 0a 03 0a c0 60 30 08 08 08 0a 01 00 3e     .......`0......>
    19c8:	63 03 7f c3 c3 c3 7d 08 0d 0d 0a 01 00 c0 c0 c0     c.....}.........
    19d8:	c0 c0 dc e6 c3 c3 c3 c3 e6 dc 08 08 08 0a 01 00     ................
    19e8:	3e 63 c0 c0 c0 c0 63 3e 08 0d 0d 0a 01 00 03 03     >c....c>........
    19f8:	03 03 03 3b 67 c3 c3 c3 c3 67 3b 08 08 08 0a 01     ...;g....g;.....
    1a08:	00 3c 66 c3 ff c0 c0 63 3e 08 0d 0d 0a 01 00 1e     .<f....c>.......
    1a18:	33 33 30 30 fc 30 30 30 30 30 30 30 08 0c 0c 0a     3300.0000000....
    1a28:	01 fc 7d c7 c6 c6 c6 7c c0 7e c3 c3 c3 7e 08 0d     ..}....|.~...~..
    1a38:	0d 0a 01 00 c0 c0 c0 c0 c0 dc e6 c3 c3 c3 c3 c3     ................
    1a48:	c3 08 0b 0b 0a 01 00 18 18 00 78 18 18 18 18 18     ..........x.....
    1a58:	18 ff 07 0f 0f 0a 02 fc 06 06 00 1e 06 06 06 06     ................
    1a68:	06 06 06 c6 c6 c6 7c 08 0d 0d 0a 01 00 c0 c0 c0     ......|.........
    1a78:	c0 c0 c6 cc d8 f0 f8 cc c6 c3 08 0d 0d 0a 01 00     ................
    1a88:	78 18 18 18 18 18 18 18 18 18 18 18 ff 08 08 08     x...............
    1a98:	0a 01 00 b6 ff db db db db db db 08 08 08 0a 01     ................
    1aa8:	00 dc e6 c3 c3 c3 c3 c3 c3 08 08 08 0a 01 00 3c     ...............<
    1ab8:	66 c3 c3 c3 c3 66 3c 08 0c 0c 0a 01 fc dc e6 c3     f....f<.........
    1ac8:	c3 c3 c3 e6 dc c0 c0 c0 c0 08 0c 0c 0a 01 fc 3b     ...............;
    1ad8:	67 c3 c3 c3 c3 67 3b 03 03 03 03 08 08 08 0a 01     g....g;.........
    1ae8:	00 de 73 60 60 60 60 60 60 08 08 08 0a 01 00 7e     ..s``````......~
    1af8:	c3 c0 7e 03 03 c3 7e 08 0b 0b 0a 01 00 30 30 30     ..~...~......000
    1b08:	fc 30 30 30 30 30 33 1e 08 08 08 0a 01 00 c3 c3     .000003.........
    1b18:	c3 c3 c3 c3 67 3b 08 08 08 0a 01 00 c3 c3 66 66     ....g;........ff
    1b28:	3c 3c 18 18 08 08 08 0a 01 00 c3 c3 c3 db db db     <<..............
    1b38:	ff 66 08 08 08 0a 01 00 c3 66 3c 18 18 3c 66 c3     .f.......f<..<f.
    1b48:	08 0c 0c 0a 01 fc c3 c3 c3 c3 c3 c3 67 3b 03 c3     ............g;..
    1b58:	66 3c 07 08 08 0a 02 00 fe 06 0c 18 30 60 c0 fe     f<..........0`..
    1b68:	08 0d 0d 0a 01 00 0f 18 18 18 18 18 f0 18 18 18     ................
    1b78:	18 18 0f 02 0d 0d 0a 04 00 c0 c0 c0 c0 c0 c0 c0     ................
    1b88:	c0 c0 c0 c0 c0 c0 08 0d 0d 0a 01 00 f0 18 18 18     ................
    1b98:	18 18 0f 18 18 18 18 18 f0 08 03 03 0a 01 0a 73     ...............s
    1ba8:	db ce ff ff ff ff ff ff ff ff ff ff ff ff ff ff     ................
    1bb8:	ff ff ff ff ff ff ff ff ff ff ff ff ff ff ff ff     ................
    1bc8:	ff ff ff 00 00 00 0a 00 10 02 0d 0d 0a 04 00 c0     ................
    1bd8:	c0 00 c0 c0 c0 c0 c0 c0 c0 c0 c0 c0 07 0c 0c 0a     ................
    1be8:	01 00 18 18 3c 66 c2 c0 c0 c2 66 3c 18 18 09 0c     ....<f....f<....
    1bf8:	18 0a 01 00 1e 00 33 00 33 00 30 00 30 00 fc 00     ......3.3.0.0...
    1c08:	30 00 30 00 30 00 f8 00 ad 80 e7 00 09 09 12 0a     0.0.0...........
    1c18:	00 01 80 80 dd 80 7f 00 63 00 63 00 63 00 7f 00     ........c.c.c...
    1c28:	dd 80 80 80 08 0b 0b 0a 01 00 81 c3 66 3c 7e 18     ............f<~.
    1c38:	7e 18 18 18 18 02 0d 0d 0a 04 00 c0 c0 c0 c0 c0     ~...............
    1c48:	00 00 00 c0 c0 c0 c0 c0 08 0d 0d 0a 01 00 3c 66     ..............<f
    1c58:	c6 60 78 cc 66 33 1e 06 63 66 3c 06 02 02 0a 02     .`x.f3..cf<.....
    1c68:	0b cc cc 08 0b 0b 0a 01 00 3c 66 c3 bd a5 a1 a5     .........<f.....
    1c78:	bd c3 66 3c 08 09 09 0a 01 04 3e 43 03 7f c3 c3     ..f<......>C....
    1c88:	7d 00 ff 09 0b 16 0a 00 00 04 80 0d 80 1b 00 36     }..............6
    1c98:	00 6c 00 d8 00 6c 00 36 00 1b 00 0d 80 04 80 08     .l...l.6........
    1ca8:	04 04 0a 01 04 ff ff 03 03 06 01 01 0a 02 06 fc     ................
    1cb8:	08 0b 0b 0a 01 00 3c 66 c3 bd a5 bd a9 ad c3 66     ......<f.......f
    1cc8:	3c 08 01 01 0a 01 0d ff 06 06 06 0a 02 07 30 78     <.............0x
    1cd8:	cc cc 78 30 08 07 07 0a 01 02 18 18 ff 18 18 00     ..x0............
    1ce8:	ff 05 07 07 0a 02 06 70 d8 18 30 60 c0 f8 05 07     .......p..0`....
    1cf8:	07 0a 02 06 70 d8 18 30 18 d8 70 04 03 03 0a 03     ....p..0..p.....
    1d08:	0a 30 60 c0 07 0a 0a 0a 01 fd c6 c6 c6 c6 c6 ee     .0`.............
    1d18:	fa c0 c0 c0 08 0d 0d 0a 01 00 7f ff fb fb fb 7b     ...............{
    1d28:	1b 1b 1b 1b 1b 1b 1b 03 03 03 0a 04 05 e0 e0 e0     ................
    1d38:	05 04 04 0a 02 fc 30 18 d8 70 04 07 07 0a 02 06     ......0..p......
    1d48:	60 e0 60 60 60 60 f0 07 09 09 0a 01 04 38 6c c6     `.````.......8l.
    1d58:	c6 c6 6c 38 00 fe 09 0b 16 0a 01 00 90 00 d8 00     ..l8............
    1d68:	6c 00 36 00 1b 00 0d 80 1b 00 36 00 6c 00 d8 00     l.6.......6.l...
    1d78:	90 00 08 0c 0c 0a 01 01 40 c0 41 42 e4 08 12 26     ........@.AB...&
    1d88:	4a 9e 02 02 08 0c 0c 0a 01 01 40 c0 41 42 e4 08     J.........@.AB..
    1d98:	16 29 41 82 04 0f 08 0c 0c 0a 01 01 e0 10 61 12     .)A...........a.
    1da8:	e4 08 12 26 4a 9f 02 02 08 0d 0d 0a 01 00 18 18     ...&J...........
    1db8:	00 18 18 18 30 60 c3 c3 c3 66 3c 08 0f 0f 0a 01     ....0`...f<.....
    1dc8:	00 60 30 18 00 18 3c 66 c3 c3 c3 ff c3 c3 c3 c3     .`0...<f........
    1dd8:	08 0f 0f 0a 01 00 06 0c 18 00 18 3c 66 c3 c3 c3     ...........<f...
    1de8:	ff c3 c3 c3 c3 08 0f 0f 0a 01 00 18 3c 66 00 18     ............<f..
    1df8:	3c 66 c3 c3 c3 ff c3 c3 c3 c3 08 0f 0f 0a 01 00     <f..............
    1e08:	32 7e 4c 00 18 3c 66 c3 c3 c3 ff c3 c3 c3 c3 08     2~L..<f.........
    1e18:	0f 0f 0a 01 00 66 66 00 18 3c 66 66 c3 c3 c3 ff     .....ff..<ff....
    1e28:	c3 c3 c3 c3 08 10 10 0a 01 00 3c 66 66 3c 00 18     ..........<ff<..
    1e38:	3c 66 c3 c3 c3 ff c3 c3 c3 c3 08 0d 0d 0a 01 00     <f..............
    1e48:	1f 3c 6c 6c cc cc ff cc cc cc cc cc cf 08 11 11     .<ll............
    1e58:	0a 01 fc 3c 66 c3 c0 c0 c0 c0 c0 c0 c0 c3 66 3c     ...<f.........f<
    1e68:	18 0c 6c 38 08 0f 0f 0a 01 00 60 30 18 00 ff c0     ..l8......`0....
    1e78:	c0 c0 c0 fc c0 c0 c0 c0 ff 08 0f 0f 0a 01 00 0c     ................
    1e88:	18 30 00 ff c0 c0 c0 c0 fc c0 c0 c0 c0 ff 08 0f     .0..............
    1e98:	0f 0a 01 00 18 3c 66 00 ff c0 c0 c0 c0 fc c0 c0     .....<f.........
    1ea8:	c0 c0 ff 08 0f 0f 0a 01 00 66 66 00 00 ff c0 c0     .........ff.....
    1eb8:	c0 c0 fc c0 c0 c0 c0 ff 06 0f 0f 0a 02 00 60 30     ..............`0
    1ec8:	18 00 fc 30 30 30 30 30 30 30 30 30 fc 06 0f 0f     ...000000000....
    1ed8:	0a 02 00 18 30 60 00 fc 30 30 30 30 30 30 30 30     ....0`..00000000
    1ee8:	30 fc 06 0f 0f 0a 02 00 30 78 cc 00 fc 30 30 30     0.......0x...000
    1ef8:	30 30 30 30 30 30 fc 06 0f 0f 0a 02 00 cc cc 00     000000..........
    1f08:	fc 30 30 30 30 30 30 30 30 30 30 fc 09 0d 1a 0a     .0000000000.....
    1f18:	00 00 7e 00 63 00 61 80 61 80 61 80 61 80 f9 80     ..~.c.a.a.a.a...
    1f28:	61 80 61 80 61 80 61 80 63 00 7e 00 08 0f 0f 0a     a.a.a.a.c.~.....
    1f38:	01 00 32 7e 4c 00 c3 e3 f3 f3 db db cf cf c7 c3     ..2~L...........
    1f48:	c3 08 0f 0f 0a 01 00 30 18 0c 00 3c 66 c3 c3 c3     .......0...<f...
    1f58:	c3 c3 c3 c3 66 3c 08 0f 0f 0a 01 00 0c 18 30 00     ....f<........0.
    1f68:	3c 66 c3 c3 c3 c3 c3 c3 c3 66 3c 08 0f 0f 0a 01     <f.......f<.....
    1f78:	00 18 3c 66 00 3c 66 c3 c3 c3 c3 c3 c3 c3 66 3c     ..<f.<f.......f<
    1f88:	08 0f 0f 0a 01 00 32 7e 4c 00 3c 66 c3 c3 c3 c3     ......2~L.<f....
    1f98:	c3 c3 c3 66 3c 08 0f 0f 0a 01 00 66 66 00 3c 66     ...f<......ff.<f
    1fa8:	c3 c3 c3 c3 c3 c3 c3 c3 66 3c 07 08 08 0a 01 00     ........f<......
    1fb8:	82 c6 6c 38 38 6c c6 82 08 0f 0f 0a 01 ff 01 3e     ..l88l.........>
    1fc8:	66 c7 c7 cb cb cb d3 d3 d3 e3 66 7c 80 08 0f 0f     f.........f|....
    1fd8:	0a 01 00 30 18 0c 00 c3 c3 c3 c3 c3 c3 c3 c3 c3     ...0............
    1fe8:	66 3c 08 0f 0f 0a 01 00 0c 18 30 00 c3 c3 c3 c3     f<........0.....
    1ff8:	c3 c3 c3 c3 c3 66 3c 08 0f 0f 0a 01 00 18 3c 66     .....f<.......<f
    2008:	00 c3 c3 c3 c3 c3 c3 c3 c3 c3 66 3c 08 0f 0f 0a     ..........f<....
    2018:	01 00 66 66 00 c3 c3 c3 c3 c3 c3 c3 c3 c3 c3 66     ..ff...........f
    2028:	3c 08 0f 0f 0a 01 00 0c 18 30 00 c3 c3 66 66 3c     <........0...ff<
    2038:	3c 18 18 18 18 18 07 0d 0d 0a 02 00 c0 c0 c0 fc     <...............
    2048:	c6 c6 c6 c6 c6 fc c0 c0 c0 08 0d 0d 0a 01 00 1c     ................
    2058:	36 63 63 66 ec 6c 66 63 63 63 66 6c 08 0c 0c 0a     6ccf.lfcccfl....
    2068:	01 00 30 18 0c 00 7e c3 03 7f c3 c3 c3 7d 08 0c     ..0...~......}..
    2078:	0c 0a 01 00 0c 18 30 00 7e c3 03 7f c3 c3 c3 7d     ......0.~......}
    2088:	08 0c 0c 0a 01 00 18 3c 66 00 7e c3 03 7f c3 c3     .......<f.~.....
    2098:	c3 7d 08 0c 0c 0a 01 00 32 7e 4c 00 7e c3 03 7f     .}......2~L.~...
    20a8:	c3 c3 c3 7d 08 0b 0b 0a 01 00 66 66 00 7e c3 03     ...}......ff.~..
    20b8:	7f c3 c3 c3 7d 08 0d 0d 0a 01 00 3c 66 66 3c 00     ....}......<ff<.
    20c8:	7e c3 03 7f c3 c3 c3 7d 08 08 08 0a 01 00 76 9b     ~......}......v.
    20d8:	1b 1e 78 d8 d9 6e 08 0c 0c 0a 01 fc 3e 63 c0 c0     ..x..n......>c..
    20e8:	c0 c0 63 3e 18 0c 6c 38 08 0c 0c 0a 01 00 60 30     ..c>..l8......`0
    20f8:	18 00 3c 66 c3 ff c0 c0 63 3e 08 0c 0c 0a 01 00     ..<f....c>......
    2108:	06 0c 18 00 3c 66 c3 ff c0 c0 63 3e 08 0c 0c 0a     ....<f....c>....
    2118:	01 00 18 3c 66 00 3c 66 c3 ff c0 c0 63 3e 08 0b     ...<f.<f....c>..
    2128:	0b 0a 01 00 66 66 00 3c 66 c3 ff c0 c0 63 3e 08     ....ff.<f....c>.
    2138:	0c 0c 0a 01 00 60 30 18 00 78 18 18 18 18 18 18     .....`0..x......
    2148:	ff 08 0c 0c 0a 01 00 0c 18 30 00 78 18 18 18 18     .........0.x....
    2158:	18 18 ff 08 0c 0c 0a 01 00 18 3c 66 00 78 18 18     ..........<f.x..
    2168:	18 18 18 18 ff 08 0b 0b 0a 01 00 66 66 00 78 18     ...........ff.x.
    2178:	18 18 18 18 18 ff 08 0d 0d 0a 01 00 88 d8 70 70     ..............pp
    2188:	d8 8c 3e 67 c3 c3 c3 66 3c 08 0c 0c 0a 01 00 32     ..>g...f<......2
    2198:	7e 4c 00 dc e6 c3 c3 c3 c3 c3 c3 08 0c 0c 0a 01     ~L..............
    21a8:	00 60 30 18 00 3c 66 c3 c3 c3 c3 66 3c 08 0c 0c     .`0..<f....f<...
    21b8:	0a 01 00 06 0c 18 00 3c 66 c3 c3 c3 c3 66 3c 08     .......<f....f<.
    21c8:	0c 0c 0a 01 00 18 3c 66 00 3c 66 c3 c3 c3 c3 66     ......<f.<f....f
    21d8:	3c 08 0c 0c 0a 01 00 32 7e 4c 00 3c 66 c3 c3 c3     <......2~L.<f...
    21e8:	c3 66 3c 08 0b 0b 0a 01 00 66 66 00 3c 66 c3 c3     .f<......ff.<f..
    21f8:	c3 c3 66 3c 08 0a 0a 0a 01 01 18 18 00 00 ff ff     ..f<............
    2208:	00 00 18 18 08 0a 0a 0a 01 ff 01 3e 66 cb cb d3     ...........>f...
    2218:	d3 66 7c 80 08 0c 0c 0a 01 00 30 18 0c 00 c3 c3     .f|.......0.....
    2228:	c3 c3 c3 c3 67 3b 08 0c 0c 0a 01 00 06 0c 18 00     ....g;..........
    2238:	c3 c3 c3 c3 c3 c3 67 3b 08 0c 0c 0a 01 00 18 3c     ......g;.......<
    2248:	66 00 c3 c3 c3 c3 c3 c3 67 3b 08 0b 0b 0a 01 00     f.......g;......
    2258:	66 66 00 c3 c3 c3 c3 c3 c3 67 3b 08 10 10 0a 01     ff.......g;.....
    2268:	fc 0c 18 30 00 c3 c3 c3 c3 c3 c3 67 3b 03 c3 66     ...0.......g;..f
    2278:	3c 07 11 11 0a 02 fc c0 c0 c0 c0 c0 c0 f8 cc c6     <...............
    2288:	c6 c6 cc f8 c0 c0 c0 c0 08 0f 0f 0a 01 fc 66 66     ..............ff
    2298:	00 c3 c3 c3 c3 c3 c3 67 3b 03 c3 66 3c              .......g;..f<

000022a5 <u8g_font_04b_24>:
    22a5:	01 05 06 00 ff 05 00 fa 01 f1 20 ff 00 05 ff 05     .......... .....
    22b5:	00 02 00 20 02 15 25 80 80 80 00 80 05 32 42 a0     ... ..%......2B.
    22c5:	a0 02 35 45 40 e0 40 e0 40 02 35 45 60 c0 40 60     ..5E@.@.@.5E`.@`
    22d5:	c0 02 35 45 a0 20 40 80 a0 02 45 55 60 80 70 a0     ..5E. @...EU`.p.
    22e5:	60 05 12 22 80 80 02 25 35 40 80 80 80 40 02 25     `.."...%5@...@.%
    22f5:	35 80 40 40 40 80 04 33 43 a0 40 a0 03 33 43 40     5.@@@..3C.@..3C@
    2305:	e0 40 01 22 32 40 80 04 31 41 e0 02 11 21 80 02     .@."2@..1A...!..
    2315:	35 45 20 20 40 80 80 02 35 45 e0 a0 a0 a0 e0 02     5E  @...5E......
    2325:	25 35 c0 40 40 40 40 02 35 45 e0 20 e0 80 e0 02     %5.@@@@.5E. ....
    2335:	35 45 e0 20 e0 20 e0 02 35 45 a0 a0 a0 e0 20 02     5E. . ..5E.... .
    2345:	35 45 e0 80 e0 20 e0 02 35 45 80 e0 a0 a0 e0 02     5E... ..5E......
    2355:	35 45 e0 20 20 40 80 02 35 45 e0 a0 e0 a0 e0 02     5E.  @..5E......
    2365:	35 45 e0 a0 a0 e0 20 03 13 23 80 00 80 02 14 24     5E.... ..#.....$
    2375:	80 00 80 80 02 35 45 20 40 80 40 20 03 33 43 e0     .....5E @.@ .3C.
    2385:	00 e0 02 35 45 80 40 20 40 80 02 35 45 e0 20 60     ...5E.@ @..5E. `
    2395:	00 40 02 55 65 70 88 e8 a8 60 02 35 45 e0 a0 a0     .@.Uep...`.5E...
    23a5:	e0 a0 02 35 45 e0 a0 e0 a0 e0 02 35 45 e0 80 80     ...5E......5E...
    23b5:	80 e0 02 35 45 c0 a0 a0 a0 e0 02 35 45 e0 80 e0     ...5E......5E...
    23c5:	80 e0 02 35 45 e0 80 e0 80 80 02 35 45 e0 80 a0     ...5E......5E...
    23d5:	a0 e0 02 35 45 a0 a0 e0 a0 a0 02 15 25 80 80 80     ...5E.......%...
    23e5:	80 80 02 35 45 20 20 a0 a0 e0 02 35 45 a0 a0 c0     ...5E  ....5E...
    23f5:	a0 a0 02 35 45 80 80 80 80 e0 02 35 45 a0 e0 a0     ...5E......5E...
    2405:	a0 a0 02 35 45 e0 a0 a0 a0 a0 02 35 45 e0 a0 a0     ...5E......5E...
    2415:	a0 e0 02 35 45 e0 a0 a0 e0 80 01 36 46 e0 a0 a0     ...5E......6F...
    2425:	a0 e0 40 02 35 45 e0 a0 a0 c0 a0 02 35 45 e0 80     ..@.5E......5E..
    2435:	e0 20 e0 02 35 45 e0 40 40 40 40 02 35 45 a0 a0     . ..5E.@@@@.5E..
    2445:	a0 a0 e0 02 35 45 a0 a0 a0 a0 c0 02 35 45 a0 a0     ....5E......5E..
    2455:	a0 e0 a0 02 35 45 a0 a0 40 a0 a0 02 35 45 a0 a0     ....5E..@...5E..
    2465:	40 40 40 02 35 45 e0 20 40 80 e0 02 25 35 c0 80     @@@.5E. @...%5..
    2475:	80 80 c0 02 35 45 80 80 40 20 20 02 25 35 c0 40     ....5E..@  .%5.@
    2485:	40 40 c0 05 32 42 40 a0 02 31 41 e0 05 22 32 80     @@..2B@..1A.."2.
    2495:	40 02 35 45 40 a0 a0 e0 a0 02 35 45 c0 a0 c0 a0     @.5E@.....5E....
    24a5:	c0 02 35 45 60 80 80 80 60 02 35 45 c0 a0 a0 a0     ..5E`...`.5E....
    24b5:	c0 02 35 45 60 80 e0 80 60 02 35 45 60 80 e0 80     ..5E`...`.5E`...
    24c5:	80 02 35 45 60 80 a0 a0 60 02 35 45 a0 a0 e0 a0     ..5E`...`.5E....
    24d5:	a0 02 15 25 80 80 80 80 80 02 35 45 20 20 a0 a0     ...%......5E  ..
    24e5:	40 02 35 45 a0 a0 c0 a0 a0 02 35 45 80 80 80 80     @.5E......5E....
    24f5:	60 02 35 45 a0 e0 a0 a0 a0 02 35 45 c0 a0 a0 a0     `.5E......5E....
    2505:	a0 02 35 45 40 a0 a0 a0 40 02 35 45 c0 a0 a0 c0     ..5E@...@.5E....
    2515:	80 01 36 46 40 a0 a0 a0 40 40 02 35 45 c0 a0 a0     ..6F@...@@.5E...
    2525:	c0 a0 02 35 45 60 80 40 20 c0 02 35 45 e0 40 40     ...5E`.@ ..5E.@@
    2535:	40 40 02 35 45 a0 a0 a0 a0 40 02 35 45 a0 a0 a0     @@.5E....@.5E...
    2545:	a0 c0 02 35 45 a0 a0 a0 e0 a0 02 35 45 a0 a0 40     ...5E......5E..@
    2555:	a0 a0 02 35 45 a0 a0 40 40 40 02 35 45 e0 20 40     ...5E..@@@.5E. @
    2565:	80 e0 02 35 45 60 40 c0 40 60 02 15 25 80 80 80     ...5E`@.@`..%...
    2575:	80 80 02 35 45 c0 40 60 40 c0 06 21 31 c0 ff ff     ...5E.@`@..!1...
    2585:	ff ff ff ff ff ff ff ff ff ff ff ff ff ff ff ff     ................
    2595:	ff ff ff ff ff ff ff ff ff ff ff ff ff ff ff ff     ................
    25a5:	02 25 35 80 40 40 40 40 02 35 45 a0 a0 a0 60 20     .%5.@@@@.5E...` 
    25b5:	02 35 45 c0 20 c0 20 c0 ff ff ff 02 35 45 80 c0     .5E. . .....5E..
    25c5:	a0 a0 40 ff ff 02 35 45 40 a0 a0 60 20 ff ff ff     ..@...5E@..` ...
    25d5:	ff ff ff ff ff ff ff ff 02 35 45 e0 20 20 40 80     .........5E.  @.
    25e5:	ff ff ff 02 35 45 40 a0 a0 a0 40 ff ff ff ff ff     ....5E@...@.....
    25f5:	ff ff ff ff ff ff ff ff ff ff ff ff ff ff ff ff     ................
    2605:	ff ff ff ff ff ff ff ff ff ff ff ff ff ff ff ff     ................
    2615:	ff ff ff ff ff ff ff ff ff ff ff ff ff ff ff ff     ................
    2625:	ff ff ff ff ff ff ff ff ff ff ff ff ff ff ff ff     ................

00002635 <_ZZ19displaySplashScreenvE3__c_1>:
    2635:	62 79 20 73 61 6b 68 70 69 6c 6f 74 73 2e 72 75     by sakhpilots.ru
	...

00002646 <_ZZ19displaySplashScreenvE3__c_0>:
    2646:	31 2e 33 47 68 7a 20 76 69 64 65 6f 00              1.3Ghz video.

00002653 <_ZZ19displaySplashScreenvE3__c>:
    2653:	53 4d 31 33 37 30 52 00                             SM1370R.

0000265b <_ZZ22displaySelectedChannelhE3__c>:
    265b:	52 53 53 49 3a 25 75 25 25 00                       RSSI:%u%%.

00002665 <_ZZ15findBestChannelvE3__c>:
    2665:	53 65 61 72 63 68 69 6e 67 2e 2e 2e 00              Searching....

00002672 <_ZL14channels_names>:
    2672:	ac 26 a7 26 a2 26 9d 26 98 26 93 26 8e 26 89 26     .&.&.&.&.&.&.&.&
    2682:	84 26                                               .&

00002684 <_ZL9channel_9>:
    2684:	31 32 35 38 00                                      1258.

00002689 <_ZL9channel_8>:
    2689:	31 33 36 30 00                                      1360.

0000268e <_ZL9channel_7>:
    268e:	31 33 32 30 00                                      1320.

00002693 <_ZL9channel_6>:
    2693:	31 32 38 30 00                                      1280.

00002698 <_ZL9channel_5>:
    2698:	31 32 34 30 00                                      1240.

0000269d <_ZL9channel_4>:
    269d:	31 32 30 30 00                                      1200.

000026a2 <_ZL9channel_3>:
    26a2:	31 31 36 30 00                                      1160.

000026a7 <_ZL9channel_2>:
    26a7:	31 31 32 30 00                                      1120.

000026ac <_ZL9channel_1>:
    26ac:	31 30 38 30 00                                      1080.

000026b1 <_ZL10with_plane>:
	...
    26c1:	00 00 00 0e 00 00 00 00 00 1f 00 00 00 00 80 3f     ...............?
    26d1:	00 00 00 00 80 7f 00 00 00 00 80 ff 00 00 00 00     ................
    26e1:	00 ff 01 00 00 00 00 ff 03 00 00 00 00 fe 0f 00     ................
    26f1:	00 00 00 fc 1f 00 00 00 00 f8 3f 00 0f 00 00 f8     ..........?.....
    2701:	7f 80 0f 00 00 f0 ff e0 0f 00 00 e0 ff f3 0f 00     ................
    2711:	00 e0 ff ff 07 00 00 c0 ff ff 03 00 00 80 ff ff     ................
    2721:	03 00 00 00 ff ff 01 00 00 00 ff ff 00 00 00 00     ................
    2731:	fe ff 00 00 00 00 fc ff 01 00 00 00 fc ff 01 00     ................
    2741:	00 00 f8 ff 03 00 00 00 f8 ff 07 00 00 00 fc ff     ................
    2751:	0f 00 00 00 fe ff 1f 00 00 00 ff ff 3f 00 00 00     ............?...
    2761:	3f ff 3f 00 00 80 1f fc 7f 00 38 c0 0f f8 ff 00     ?.?.......8.....
    2771:	f8 e0 03 e0 ff 01 fc e1 01 c0 ff 03 f8 f3 00 80     ................
    2781:	ff 07 f0 3f 00 00 fe 0f e0 1f 00 00 fc 1f e0 1f     ...?............
    2791:	00 00 f0 1f c0 3f 00 00 e0 1f 80 7f 00 00 c0 0f     .....?..........
    27a1:	00 ff 00 00 00 07 00 fe 00 00 00 00 00 fc 01 00     ................
    27b1:	00 00 00 f0 01 00 00 00 00 e0 01 00 00 00 00 40     ...............@
	...

000027d2 <__ctors_start>:
    27d2:	89 1f       	adc	r24, r25

000027d4 <__ctors_end>:
    27d4:	11 24       	eor	r1, r1
    27d6:	1f be       	out	0x3f, r1	; 63
    27d8:	cf ef       	ldi	r28, 0xFF	; 255
    27da:	d8 e0       	ldi	r29, 0x08	; 8
    27dc:	de bf       	out	0x3e, r29	; 62
    27de:	cd bf       	out	0x3d, r28	; 61

000027e0 <__do_copy_data>:
    27e0:	11 e0       	ldi	r17, 0x01	; 1
    27e2:	a0 e0       	ldi	r26, 0x00	; 0
    27e4:	b1 e0       	ldi	r27, 0x01	; 1
    27e6:	ee ed       	ldi	r30, 0xDE	; 222
    27e8:	f5 e4       	ldi	r31, 0x45	; 69
    27ea:	02 c0       	rjmp	.+4      	; 0x27f0 <__do_copy_data+0x10>
    27ec:	05 90       	lpm	r0, Z+
    27ee:	0d 92       	st	X+, r0
    27f0:	a8 31       	cpi	r26, 0x18	; 24
    27f2:	b1 07       	cpc	r27, r17
    27f4:	d9 f7       	brne	.-10     	; 0x27ec <__do_copy_data+0xc>

000027f6 <__do_clear_bss>:
    27f6:	22 e0       	ldi	r18, 0x02	; 2
    27f8:	a8 e1       	ldi	r26, 0x18	; 24
    27fa:	b1 e0       	ldi	r27, 0x01	; 1
    27fc:	01 c0       	rjmp	.+2      	; 0x2800 <.do_clear_bss_start>

000027fe <.do_clear_bss_loop>:
    27fe:	1d 92       	st	X+, r1

00002800 <.do_clear_bss_start>:
    2800:	a5 30       	cpi	r26, 0x05	; 5
    2802:	b2 07       	cpc	r27, r18
    2804:	e1 f7       	brne	.-8      	; 0x27fe <.do_clear_bss_loop>

00002806 <__do_global_ctors>:
    2806:	13 e1       	ldi	r17, 0x13	; 19
    2808:	ca ee       	ldi	r28, 0xEA	; 234
    280a:	d3 e1       	ldi	r29, 0x13	; 19
    280c:	04 c0       	rjmp	.+8      	; 0x2816 <__do_global_ctors+0x10>
    280e:	21 97       	sbiw	r28, 0x01	; 1
    2810:	fe 01       	movw	r30, r28
    2812:	0e 94 08 20 	call	0x4010	; 0x4010 <__tablejump2__>
    2816:	c9 3e       	cpi	r28, 0xE9	; 233
    2818:	d1 07       	cpc	r29, r17
    281a:	c9 f7       	brne	.-14     	; 0x280e <__do_global_ctors+0x8>
    281c:	0e 94 73 1f 	call	0x3ee6	; 0x3ee6 <main>
    2820:	0c 94 ed 22 	jmp	0x45da	; 0x45da <_exit>

00002824 <__bad_interrupt>:
    2824:	0c 94 00 00 	jmp	0	; 0x0 <__vectors>

00002828 <_ZN6EEPROM5writeEjh>:
    2828:	f9 99       	sbic	0x1f, 1	; 31
    282a:	fe cf       	rjmp	.-4      	; 0x2828 <_ZN6EEPROM5writeEjh>
    282c:	72 bd       	out	0x22, r23	; 34
    282e:	61 bd       	out	0x21, r22	; 33
    2830:	40 bd       	out	0x20, r20	; 32
    2832:	fa 9a       	sbi	0x1f, 2	; 31
    2834:	f9 9a       	sbi	0x1f, 1	; 31
    2836:	08 95       	ret

00002838 <_ZN6EEPROM8readByteEj>:
    2838:	f9 99       	sbic	0x1f, 1	; 31
    283a:	fe cf       	rjmp	.-4      	; 0x2838 <_ZN6EEPROM8readByteEj>
    283c:	72 bd       	out	0x22, r23	; 34
    283e:	61 bd       	out	0x21, r22	; 33
    2840:	f8 9a       	sbi	0x1f, 0	; 31
    2842:	80 b5       	in	r24, 0x20	; 32
    2844:	08 95       	ret

00002846 <u8g_DrawXBMP>:
    2846:	2f 92       	push	r2
    2848:	3f 92       	push	r3
    284a:	4f 92       	push	r4
    284c:	5f 92       	push	r5
    284e:	6f 92       	push	r6
    2850:	7f 92       	push	r7
    2852:	8f 92       	push	r8
    2854:	9f 92       	push	r9
    2856:	af 92       	push	r10
    2858:	bf 92       	push	r11
    285a:	cf 92       	push	r12
    285c:	df 92       	push	r13
    285e:	ef 92       	push	r14
    2860:	ff 92       	push	r15
    2862:	0f 93       	push	r16
    2864:	1f 93       	push	r17
    2866:	cf 93       	push	r28
    2868:	df 93       	push	r29
    286a:	00 d0       	rcall	.+0      	; 0x286c <u8g_DrawXBMP+0x26>
    286c:	cd b7       	in	r28, 0x3d	; 61
    286e:	de b7       	in	r29, 0x3e	; 62
    2870:	4c 01       	movw	r8, r24
    2872:	16 2f       	mov	r17, r22
    2874:	24 2e       	mov	r2, r20
    2876:	32 2f       	mov	r19, r18
    2878:	50 2e       	mov	r5, r16
    287a:	39 83       	std	Y+1, r19	; 0x01
    287c:	0e 94 a1 14 	call	0x2942	; 0x2942 <u8g_IsBBXIntersection>
    2880:	39 81       	ldd	r19, Y+1	; 0x01
    2882:	88 23       	and	r24, r24
    2884:	09 f4       	brne	.+2      	; 0x2888 <u8g_DrawXBMP+0x42>
    2886:	48 c0       	rjmp	.+144    	; 0x2918 <u8g_DrawXBMP+0xd2>
    2888:	87 e0       	ldi	r24, 0x07	; 7
    288a:	83 0f       	add	r24, r19
    288c:	c8 2e       	mov	r12, r24
    288e:	c6 94       	lsr	r12
    2890:	c6 94       	lsr	r12
    2892:	c6 94       	lsr	r12
    2894:	d1 2c       	mov	r13, r1
    2896:	52 0c       	add	r5, r2
    2898:	87 e0       	ldi	r24, 0x07	; 7
    289a:	48 2e       	mov	r4, r24
    289c:	41 0e       	add	r4, r17
    289e:	83 2f       	mov	r24, r19
    28a0:	86 95       	lsr	r24
    28a2:	86 95       	lsr	r24
    28a4:	86 95       	lsr	r24
    28a6:	68 2e       	mov	r6, r24
    28a8:	71 2c       	mov	r7, r1
    28aa:	98 e0       	ldi	r25, 0x08	; 8
    28ac:	89 9f       	mul	r24, r25
    28ae:	10 0d       	add	r17, r0
    28b0:	11 24       	eor	r1, r1
    28b2:	34 2c       	mov	r3, r4
    28b4:	33 0e       	add	r3, r19
    28b6:	37 70       	andi	r19, 0x07	; 7
    28b8:	3a 83       	std	Y+2, r19	; 0x02
    28ba:	25 14       	cp	r2, r5
    28bc:	69 f1       	breq	.+90     	; 0x2918 <u8g_DrawXBMP+0xd2>
    28be:	57 01       	movw	r10, r14
    28c0:	34 2d       	mov	r19, r4
    28c2:	83 2d       	mov	r24, r3
    28c4:	83 1b       	sub	r24, r19
    28c6:	88 30       	cpi	r24, 0x08	; 8
    28c8:	78 f0       	brcs	.+30     	; 0x28e8 <u8g_DrawXBMP+0xa2>
    28ca:	f5 01       	movw	r30, r10
    28cc:	04 91       	lpm	r16, Z
    28ce:	22 e0       	ldi	r18, 0x02	; 2
    28d0:	42 2d       	mov	r20, r2
    28d2:	63 2f       	mov	r22, r19
    28d4:	c4 01       	movw	r24, r8
    28d6:	39 83       	std	Y+1, r19	; 0x01
    28d8:	0e 94 82 1a 	call	0x3504	; 0x3504 <u8g_Draw8Pixel>
    28dc:	ff ef       	ldi	r31, 0xFF	; 255
    28de:	af 1a       	sub	r10, r31
    28e0:	bf 0a       	sbc	r11, r31
    28e2:	39 81       	ldd	r19, Y+1	; 0x01
    28e4:	38 5f       	subi	r19, 0xF8	; 248
    28e6:	ed cf       	rjmp	.-38     	; 0x28c2 <u8g_DrawXBMP+0x7c>
    28e8:	f7 01       	movw	r30, r14
    28ea:	e6 0d       	add	r30, r6
    28ec:	f7 1d       	adc	r31, r7
    28ee:	aa 80       	ldd	r10, Y+2	; 0x02
    28f0:	aa 20       	and	r10, r10
    28f2:	71 f0       	breq	.+28     	; 0x2910 <u8g_DrawXBMP+0xca>
    28f4:	b4 90       	lpm	r11, Z
    28f6:	01 2f       	mov	r16, r17
    28f8:	b0 fe       	sbrs	r11, 0
    28fa:	05 c0       	rjmp	.+10     	; 0x2906 <u8g_DrawXBMP+0xc0>
    28fc:	42 2d       	mov	r20, r2
    28fe:	60 2f       	mov	r22, r16
    2900:	c4 01       	movw	r24, r8
    2902:	0e 94 7a 1a 	call	0x34f4	; 0x34f4 <u8g_DrawPixel>
    2906:	0f 5f       	subi	r16, 0xFF	; 255
    2908:	aa 94       	dec	r10
    290a:	b6 94       	lsr	r11
    290c:	a1 10       	cpse	r10, r1
    290e:	f4 cf       	rjmp	.-24     	; 0x28f8 <u8g_DrawXBMP+0xb2>
    2910:	ec 0c       	add	r14, r12
    2912:	fd 1c       	adc	r15, r13
    2914:	23 94       	inc	r2
    2916:	d1 cf       	rjmp	.-94     	; 0x28ba <u8g_DrawXBMP+0x74>
    2918:	0f 90       	pop	r0
    291a:	0f 90       	pop	r0
    291c:	df 91       	pop	r29
    291e:	cf 91       	pop	r28
    2920:	1f 91       	pop	r17
    2922:	0f 91       	pop	r16
    2924:	ff 90       	pop	r15
    2926:	ef 90       	pop	r14
    2928:	df 90       	pop	r13
    292a:	cf 90       	pop	r12
    292c:	bf 90       	pop	r11
    292e:	af 90       	pop	r10
    2930:	9f 90       	pop	r9
    2932:	8f 90       	pop	r8
    2934:	7f 90       	pop	r7
    2936:	6f 90       	pop	r6
    2938:	5f 90       	pop	r5
    293a:	4f 90       	pop	r4
    293c:	3f 90       	pop	r3
    293e:	2f 90       	pop	r2
    2940:	08 95       	ret

00002942 <u8g_IsBBXIntersection>:
    2942:	0f 93       	push	r16
    2944:	fc 01       	movw	r30, r24
    2946:	01 50       	subi	r16, 0x01	; 1
    2948:	04 0f       	add	r16, r20
    294a:	84 a9       	ldd	r24, Z+52	; 0x34
    294c:	96 a9       	ldd	r25, Z+54	; 0x36
    294e:	94 17       	cp	r25, r20
    2950:	18 f0       	brcs	.+6      	; 0x2958 <u8g_IsBBXIntersection+0x16>
    2952:	08 17       	cp	r16, r24
    2954:	28 f4       	brcc	.+10     	; 0x2960 <u8g_IsBBXIntersection+0x1e>
    2956:	02 c0       	rjmp	.+4      	; 0x295c <u8g_IsBBXIntersection+0x1a>
    2958:	08 17       	cp	r16, r24
    295a:	50 f0       	brcs	.+20     	; 0x2970 <u8g_IsBBXIntersection+0x2e>
    295c:	04 17       	cp	r16, r20
    295e:	40 f4       	brcc	.+16     	; 0x2970 <u8g_IsBBXIntersection+0x2e>
    2960:	21 50       	subi	r18, 0x01	; 1
    2962:	26 0f       	add	r18, r22
    2964:	83 a9       	ldd	r24, Z+51	; 0x33
    2966:	95 a9       	ldd	r25, Z+53	; 0x35
    2968:	96 17       	cp	r25, r22
    296a:	20 f4       	brcc	.+8      	; 0x2974 <u8g_IsBBXIntersection+0x32>
    296c:	28 17       	cp	r18, r24
    296e:	20 f4       	brcc	.+8      	; 0x2978 <u8g_IsBBXIntersection+0x36>
    2970:	80 e0       	ldi	r24, 0x00	; 0
    2972:	07 c0       	rjmp	.+14     	; 0x2982 <u8g_IsBBXIntersection+0x40>
    2974:	28 17       	cp	r18, r24
    2976:	20 f4       	brcc	.+8      	; 0x2980 <u8g_IsBBXIntersection+0x3e>
    2978:	81 e0       	ldi	r24, 0x01	; 1
    297a:	26 17       	cp	r18, r22
    297c:	10 f0       	brcs	.+4      	; 0x2982 <u8g_IsBBXIntersection+0x40>
    297e:	f8 cf       	rjmp	.-16     	; 0x2970 <u8g_IsBBXIntersection+0x2e>
    2980:	81 e0       	ldi	r24, 0x01	; 1
    2982:	0f 91       	pop	r16
    2984:	08 95       	ret

00002986 <u8g_InitCom>:
    2986:	db 01       	movw	r26, r22
    2988:	14 96       	adiw	r26, 0x04	; 4
    298a:	ed 91       	ld	r30, X+
    298c:	fc 91       	ld	r31, X
    298e:	15 97       	sbiw	r26, 0x05	; 5
    2990:	20 e0       	ldi	r18, 0x00	; 0
    2992:	30 e0       	ldi	r19, 0x00	; 0
    2994:	61 e0       	ldi	r22, 0x01	; 1
    2996:	09 94       	ijmp

00002998 <u8g_SetChipSelect>:
    2998:	db 01       	movw	r26, r22
    299a:	14 96       	adiw	r26, 0x04	; 4
    299c:	ed 91       	ld	r30, X+
    299e:	fc 91       	ld	r31, X
    29a0:	15 97       	sbiw	r26, 0x05	; 5
    29a2:	20 e0       	ldi	r18, 0x00	; 0
    29a4:	30 e0       	ldi	r19, 0x00	; 0
    29a6:	63 e0       	ldi	r22, 0x03	; 3
    29a8:	09 94       	ijmp

000029aa <u8g_SetResetLow>:
    29aa:	db 01       	movw	r26, r22
    29ac:	14 96       	adiw	r26, 0x04	; 4
    29ae:	ed 91       	ld	r30, X+
    29b0:	fc 91       	ld	r31, X
    29b2:	15 97       	sbiw	r26, 0x05	; 5
    29b4:	20 e0       	ldi	r18, 0x00	; 0
    29b6:	30 e0       	ldi	r19, 0x00	; 0
    29b8:	40 e0       	ldi	r20, 0x00	; 0
    29ba:	64 e0       	ldi	r22, 0x04	; 4
    29bc:	09 94       	ijmp

000029be <u8g_SetResetHigh>:
    29be:	db 01       	movw	r26, r22
    29c0:	14 96       	adiw	r26, 0x04	; 4
    29c2:	ed 91       	ld	r30, X+
    29c4:	fc 91       	ld	r31, X
    29c6:	15 97       	sbiw	r26, 0x05	; 5
    29c8:	20 e0       	ldi	r18, 0x00	; 0
    29ca:	30 e0       	ldi	r19, 0x00	; 0
    29cc:	41 e0       	ldi	r20, 0x01	; 1
    29ce:	64 e0       	ldi	r22, 0x04	; 4
    29d0:	09 94       	ijmp

000029d2 <u8g_SetAddress>:
    29d2:	db 01       	movw	r26, r22
    29d4:	14 96       	adiw	r26, 0x04	; 4
    29d6:	ed 91       	ld	r30, X+
    29d8:	fc 91       	ld	r31, X
    29da:	15 97       	sbiw	r26, 0x05	; 5
    29dc:	20 e0       	ldi	r18, 0x00	; 0
    29de:	30 e0       	ldi	r19, 0x00	; 0
    29e0:	62 e0       	ldi	r22, 0x02	; 2
    29e2:	09 94       	ijmp

000029e4 <u8g_WriteByte>:
    29e4:	db 01       	movw	r26, r22
    29e6:	14 96       	adiw	r26, 0x04	; 4
    29e8:	ed 91       	ld	r30, X+
    29ea:	fc 91       	ld	r31, X
    29ec:	15 97       	sbiw	r26, 0x05	; 5
    29ee:	20 e0       	ldi	r18, 0x00	; 0
    29f0:	30 e0       	ldi	r19, 0x00	; 0
    29f2:	65 e0       	ldi	r22, 0x05	; 5
    29f4:	09 94       	ijmp

000029f6 <u8g_WriteSequence>:
    29f6:	db 01       	movw	r26, r22
    29f8:	14 96       	adiw	r26, 0x04	; 4
    29fa:	ed 91       	ld	r30, X+
    29fc:	fc 91       	ld	r31, X
    29fe:	15 97       	sbiw	r26, 0x05	; 5
    2a00:	66 e0       	ldi	r22, 0x06	; 6
    2a02:	09 94       	ijmp

00002a04 <u8g_WriteEscSeqP>:
    2a04:	cf 92       	push	r12
    2a06:	df 92       	push	r13
    2a08:	ef 92       	push	r14
    2a0a:	ff 92       	push	r15
    2a0c:	0f 93       	push	r16
    2a0e:	1f 93       	push	r17
    2a10:	cf 93       	push	r28
    2a12:	df 93       	push	r29
    2a14:	8c 01       	movw	r16, r24
    2a16:	7b 01       	movw	r14, r22
    2a18:	6a 01       	movw	r12, r20
    2a1a:	80 e0       	ldi	r24, 0x00	; 0
    2a1c:	f6 01       	movw	r30, r12
    2a1e:	c4 91       	lpm	r28, Z
    2a20:	81 11       	cpse	r24, r1
    2a22:	0a c0       	rjmp	.+20     	; 0x2a38 <u8g_WriteEscSeqP+0x34>
    2a24:	cf 3f       	cpi	r28, 0xFF	; 255
    2a26:	e9 f1       	breq	.+122    	; 0x2aa2 <u8g_WriteEscSeqP+0x9e>
    2a28:	4c 2f       	mov	r20, r28
    2a2a:	b7 01       	movw	r22, r14
    2a2c:	c8 01       	movw	r24, r16
    2a2e:	0e 94 f2 14 	call	0x29e4	; 0x29e4 <u8g_WriteByte>
    2a32:	81 11       	cpse	r24, r1
    2a34:	2f c0       	rjmp	.+94     	; 0x2a94 <u8g_WriteEscSeqP+0x90>
    2a36:	3a c0       	rjmp	.+116    	; 0x2aac <u8g_WriteEscSeqP+0xa8>
    2a38:	cf 3f       	cpi	r28, 0xFF	; 255
    2a3a:	11 f4       	brne	.+4      	; 0x2a40 <u8g_WriteEscSeqP+0x3c>
    2a3c:	4f ef       	ldi	r20, 0xFF	; 255
    2a3e:	f5 cf       	rjmp	.-22     	; 0x2a2a <u8g_WriteEscSeqP+0x26>
    2a40:	ce 3f       	cpi	r28, 0xFE	; 254
    2a42:	b1 f1       	breq	.+108    	; 0x2ab0 <u8g_WriteEscSeqP+0xac>
    2a44:	c0 3f       	cpi	r28, 0xF0	; 240
    2a46:	30 f5       	brcc	.+76     	; 0x2a94 <u8g_WriteEscSeqP+0x90>
    2a48:	c0 3e       	cpi	r28, 0xE0	; 224
    2a4a:	38 f0       	brcs	.+14     	; 0x2a5a <u8g_WriteEscSeqP+0x56>
    2a4c:	4c 2f       	mov	r20, r28
    2a4e:	4f 70       	andi	r20, 0x0F	; 15
    2a50:	b7 01       	movw	r22, r14
    2a52:	c8 01       	movw	r24, r16
    2a54:	0e 94 e9 14 	call	0x29d2	; 0x29d2 <u8g_SetAddress>
    2a58:	1d c0       	rjmp	.+58     	; 0x2a94 <u8g_WriteEscSeqP+0x90>
    2a5a:	c0 3d       	cpi	r28, 0xD0	; 208
    2a5c:	38 f0       	brcs	.+14     	; 0x2a6c <u8g_WriteEscSeqP+0x68>
    2a5e:	4c 2f       	mov	r20, r28
    2a60:	4f 70       	andi	r20, 0x0F	; 15
    2a62:	b7 01       	movw	r22, r14
    2a64:	c8 01       	movw	r24, r16
    2a66:	0e 94 cc 14 	call	0x2998	; 0x2998 <u8g_SetChipSelect>
    2a6a:	14 c0       	rjmp	.+40     	; 0x2a94 <u8g_WriteEscSeqP+0x90>
    2a6c:	c0 3c       	cpi	r28, 0xC0	; 192
    2a6e:	a0 f0       	brcs	.+40     	; 0x2a98 <u8g_WriteEscSeqP+0x94>
    2a70:	b7 01       	movw	r22, r14
    2a72:	c8 01       	movw	r24, r16
    2a74:	0e 94 d5 14 	call	0x29aa	; 0x29aa <u8g_SetResetLow>
    2a78:	c2 95       	swap	r28
    2a7a:	c0 7f       	andi	r28, 0xF0	; 240
    2a7c:	ce 5f       	subi	r28, 0xFE	; 254
    2a7e:	d0 e0       	ldi	r29, 0x00	; 0
    2a80:	ce 01       	movw	r24, r28
    2a82:	0e 94 79 16 	call	0x2cf2	; 0x2cf2 <u8g_Delay>
    2a86:	b7 01       	movw	r22, r14
    2a88:	c8 01       	movw	r24, r16
    2a8a:	0e 94 df 14 	call	0x29be	; 0x29be <u8g_SetResetHigh>
    2a8e:	ce 01       	movw	r24, r28
    2a90:	0e 94 79 16 	call	0x2cf2	; 0x2cf2 <u8g_Delay>
    2a94:	80 e0       	ldi	r24, 0x00	; 0
    2a96:	06 c0       	rjmp	.+12     	; 0x2aa4 <u8g_WriteEscSeqP+0xa0>
    2a98:	c7 fd       	sbrc	r28, 7
    2a9a:	fc cf       	rjmp	.-8      	; 0x2a94 <u8g_WriteEscSeqP+0x90>
    2a9c:	8c 2f       	mov	r24, r28
    2a9e:	90 e0       	ldi	r25, 0x00	; 0
    2aa0:	f7 cf       	rjmp	.-18     	; 0x2a90 <u8g_WriteEscSeqP+0x8c>
    2aa2:	81 e0       	ldi	r24, 0x01	; 1
    2aa4:	ff ef       	ldi	r31, 0xFF	; 255
    2aa6:	cf 1a       	sub	r12, r31
    2aa8:	df 0a       	sbc	r13, r31
    2aaa:	b8 cf       	rjmp	.-144    	; 0x2a1c <u8g_WriteEscSeqP+0x18>
    2aac:	80 e0       	ldi	r24, 0x00	; 0
    2aae:	01 c0       	rjmp	.+2      	; 0x2ab2 <u8g_WriteEscSeqP+0xae>
    2ab0:	81 e0       	ldi	r24, 0x01	; 1
    2ab2:	df 91       	pop	r29
    2ab4:	cf 91       	pop	r28
    2ab6:	1f 91       	pop	r17
    2ab8:	0f 91       	pop	r16
    2aba:	ff 90       	pop	r15
    2abc:	ef 90       	pop	r14
    2abe:	df 90       	pop	r13
    2ac0:	cf 90       	pop	r12
    2ac2:	08 95       	ret

00002ac4 <u8g_com_arduino_ssd_start_sequence>:
    2ac4:	cf 93       	push	r28
    2ac6:	df 93       	push	r29
    2ac8:	fc 01       	movw	r30, r24
    2aca:	23 a5       	ldd	r18, Z+43	; 0x2b
    2acc:	22 23       	and	r18, r18
    2ace:	81 f0       	breq	.+32     	; 0x2af0 <u8g_com_arduino_ssd_start_sequence+0x2c>
    2ad0:	ec 01       	movw	r28, r24
    2ad2:	88 e7       	ldi	r24, 0x78	; 120
    2ad4:	0e 94 1a 16 	call	0x2c34	; 0x2c34 <u8g_i2c_start>
    2ad8:	81 11       	cpse	r24, r1
    2ada:	02 c0       	rjmp	.+4      	; 0x2ae0 <u8g_com_arduino_ssd_start_sequence+0x1c>
    2adc:	80 e0       	ldi	r24, 0x00	; 0
    2ade:	09 c0       	rjmp	.+18     	; 0x2af2 <u8g_com_arduino_ssd_start_sequence+0x2e>
    2ae0:	8e a1       	ldd	r24, Y+38	; 0x26
    2ae2:	81 11       	cpse	r24, r1
    2ae4:	80 e4       	ldi	r24, 0x40	; 64
    2ae6:	0e 94 51 16 	call	0x2ca2	; 0x2ca2 <u8g_i2c_send_byte>
    2aea:	88 23       	and	r24, r24
    2aec:	b9 f3       	breq	.-18     	; 0x2adc <u8g_com_arduino_ssd_start_sequence+0x18>
    2aee:	1b a6       	std	Y+43, r1	; 0x2b
    2af0:	81 e0       	ldi	r24, 0x01	; 1
    2af2:	df 91       	pop	r29
    2af4:	cf 91       	pop	r28
    2af6:	08 95       	ret

00002af8 <u8g_com_arduino_ssd_i2c_fn>:
    2af8:	0f 93       	push	r16
    2afa:	1f 93       	push	r17
    2afc:	cf 93       	push	r28
    2afe:	c4 2f       	mov	r28, r20
    2b00:	89 01       	movw	r16, r18
    2b02:	63 30       	cpi	r22, 0x03	; 3
    2b04:	c1 f0       	breq	.+48     	; 0x2b36 <u8g_com_arduino_ssd_i2c_fn+0x3e>
    2b06:	50 f4       	brcc	.+20     	; 0x2b1c <u8g_com_arduino_ssd_i2c_fn+0x24>
    2b08:	61 30       	cpi	r22, 0x01	; 1
    2b0a:	81 f0       	breq	.+32     	; 0x2b2c <u8g_com_arduino_ssd_i2c_fn+0x34>
    2b0c:	62 30       	cpi	r22, 0x02	; 2
    2b0e:	09 f0       	breq	.+2      	; 0x2b12 <u8g_com_arduino_ssd_i2c_fn+0x1a>
    2b10:	48 c0       	rjmp	.+144    	; 0x2ba2 <u8g_com_arduino_ssd_i2c_fn+0xaa>
    2b12:	fc 01       	movw	r30, r24
    2b14:	46 a3       	std	Z+38, r20	; 0x26
    2b16:	21 e0       	ldi	r18, 0x01	; 1
    2b18:	23 a7       	std	Z+43, r18	; 0x2b
    2b1a:	43 c0       	rjmp	.+134    	; 0x2ba2 <u8g_com_arduino_ssd_i2c_fn+0xaa>
    2b1c:	66 30       	cpi	r22, 0x06	; 6
    2b1e:	11 f1       	breq	.+68     	; 0x2b64 <u8g_com_arduino_ssd_i2c_fn+0x6c>
    2b20:	67 30       	cpi	r22, 0x07	; 7
    2b22:	79 f1       	breq	.+94     	; 0x2b82 <u8g_com_arduino_ssd_i2c_fn+0x8a>
    2b24:	65 30       	cpi	r22, 0x05	; 5
    2b26:	09 f0       	breq	.+2      	; 0x2b2a <u8g_com_arduino_ssd_i2c_fn+0x32>
    2b28:	3c c0       	rjmp	.+120    	; 0x2ba2 <u8g_com_arduino_ssd_i2c_fn+0xaa>
    2b2a:	0e c0       	rjmp	.+28     	; 0x2b48 <u8g_com_arduino_ssd_i2c_fn+0x50>
    2b2c:	fc 01       	movw	r30, r24
    2b2e:	86 a5       	ldd	r24, Z+46	; 0x2e
    2b30:	0e 94 e4 15 	call	0x2bc8	; 0x2bc8 <u8g_i2c_init>
    2b34:	36 c0       	rjmp	.+108    	; 0x2ba2 <u8g_com_arduino_ssd_i2c_fn+0xaa>
    2b36:	fc 01       	movw	r30, r24
    2b38:	16 a2       	std	Z+38, r1	; 0x26
    2b3a:	21 e0       	ldi	r18, 0x01	; 1
    2b3c:	23 a7       	std	Z+43, r18	; 0x2b
    2b3e:	41 11       	cpse	r20, r1
    2b40:	30 c0       	rjmp	.+96     	; 0x2ba2 <u8g_com_arduino_ssd_i2c_fn+0xaa>
    2b42:	0e 94 72 16 	call	0x2ce4	; 0x2ce4 <u8g_i2c_stop>
    2b46:	2d c0       	rjmp	.+90     	; 0x2ba2 <u8g_com_arduino_ssd_i2c_fn+0xaa>
    2b48:	0e 94 62 15 	call	0x2ac4	; 0x2ac4 <u8g_com_arduino_ssd_start_sequence>
    2b4c:	81 11       	cpse	r24, r1
    2b4e:	04 c0       	rjmp	.+8      	; 0x2b58 <u8g_com_arduino_ssd_i2c_fn+0x60>
    2b50:	0e 94 72 16 	call	0x2ce4	; 0x2ce4 <u8g_i2c_stop>
    2b54:	80 e0       	ldi	r24, 0x00	; 0
    2b56:	26 c0       	rjmp	.+76     	; 0x2ba4 <u8g_com_arduino_ssd_i2c_fn+0xac>
    2b58:	8c 2f       	mov	r24, r28
    2b5a:	0e 94 51 16 	call	0x2ca2	; 0x2ca2 <u8g_i2c_send_byte>
    2b5e:	81 11       	cpse	r24, r1
    2b60:	20 c0       	rjmp	.+64     	; 0x2ba2 <u8g_com_arduino_ssd_i2c_fn+0xaa>
    2b62:	f6 cf       	rjmp	.-20     	; 0x2b50 <u8g_com_arduino_ssd_i2c_fn+0x58>
    2b64:	0e 94 62 15 	call	0x2ac4	; 0x2ac4 <u8g_com_arduino_ssd_start_sequence>
    2b68:	88 23       	and	r24, r24
    2b6a:	91 f3       	breq	.-28     	; 0x2b50 <u8g_com_arduino_ssd_i2c_fn+0x58>
    2b6c:	cc 23       	and	r28, r28
    2b6e:	c9 f0       	breq	.+50     	; 0x2ba2 <u8g_com_arduino_ssd_i2c_fn+0xaa>
    2b70:	f8 01       	movw	r30, r16
    2b72:	81 91       	ld	r24, Z+
    2b74:	8f 01       	movw	r16, r30
    2b76:	0e 94 51 16 	call	0x2ca2	; 0x2ca2 <u8g_i2c_send_byte>
    2b7a:	88 23       	and	r24, r24
    2b7c:	49 f3       	breq	.-46     	; 0x2b50 <u8g_com_arduino_ssd_i2c_fn+0x58>
    2b7e:	c1 50       	subi	r28, 0x01	; 1
    2b80:	f5 cf       	rjmp	.-22     	; 0x2b6c <u8g_com_arduino_ssd_i2c_fn+0x74>
    2b82:	0e 94 62 15 	call	0x2ac4	; 0x2ac4 <u8g_com_arduino_ssd_start_sequence>
    2b86:	88 23       	and	r24, r24
    2b88:	19 f3       	breq	.-58     	; 0x2b50 <u8g_com_arduino_ssd_i2c_fn+0x58>
    2b8a:	cc 23       	and	r28, r28
    2b8c:	51 f0       	breq	.+20     	; 0x2ba2 <u8g_com_arduino_ssd_i2c_fn+0xaa>
    2b8e:	f8 01       	movw	r30, r16
    2b90:	84 91       	lpm	r24, Z
    2b92:	0e 94 51 16 	call	0x2ca2	; 0x2ca2 <u8g_i2c_send_byte>
    2b96:	88 23       	and	r24, r24
    2b98:	29 f0       	breq	.+10     	; 0x2ba4 <u8g_com_arduino_ssd_i2c_fn+0xac>
    2b9a:	0f 5f       	subi	r16, 0xFF	; 255
    2b9c:	1f 4f       	sbci	r17, 0xFF	; 255
    2b9e:	c1 50       	subi	r28, 0x01	; 1
    2ba0:	f4 cf       	rjmp	.-24     	; 0x2b8a <u8g_com_arduino_ssd_i2c_fn+0x92>
    2ba2:	81 e0       	ldi	r24, 0x01	; 1
    2ba4:	cf 91       	pop	r28
    2ba6:	1f 91       	pop	r17
    2ba8:	0f 91       	pop	r16
    2baa:	08 95       	ret

00002bac <u8g_i2c_set_error>:
    2bac:	90 91 1a 01 	lds	r25, 0x011A	; 0x80011a <u8g_i2c_err_code>
    2bb0:	91 11       	cpse	r25, r1
    2bb2:	04 c0       	rjmp	.+8      	; 0x2bbc <u8g_i2c_set_error+0x10>
    2bb4:	80 93 1a 01 	sts	0x011A, r24	; 0x80011a <u8g_i2c_err_code>
    2bb8:	60 93 18 01 	sts	0x0118, r22	; 0x800118 <__data_end>
    2bbc:	08 95       	ret

00002bbe <u8g_i2c_clear_error>:
    2bbe:	10 92 1a 01 	sts	0x011A, r1	; 0x80011a <u8g_i2c_err_code>
    2bc2:	10 92 18 01 	sts	0x0118, r1	; 0x800118 <__data_end>
    2bc6:	08 95       	ret

00002bc8 <u8g_i2c_init>:
    2bc8:	80 93 19 01 	sts	0x0119, r24	; 0x800119 <u8g_i2c_opt>
    2bcc:	10 92 b9 00 	sts	0x00B9, r1	; 0x8000b9 <__TEXT_REGION_LENGTH__+0x7e00b9>
    2bd0:	84 ff       	sbrs	r24, 4
    2bd2:	02 c0       	rjmp	.+4      	; 0x2bd8 <u8g_i2c_init+0x10>
    2bd4:	8c e0       	ldi	r24, 0x0C	; 12
    2bd6:	01 c0       	rjmp	.+2      	; 0x2bda <u8g_i2c_init+0x12>
    2bd8:	88 e4       	ldi	r24, 0x48	; 72
    2bda:	80 93 b8 00 	sts	0x00B8, r24	; 0x8000b8 <__TEXT_REGION_LENGTH__+0x7e00b8>
    2bde:	0c 94 df 15 	jmp	0x2bbe	; 0x2bbe <u8g_i2c_clear_error>

00002be2 <u8g_i2c_wait>:
    2be2:	1f 93       	push	r17
    2be4:	cf 93       	push	r28
    2be6:	df 93       	push	r29
    2be8:	00 d0       	rcall	.+0      	; 0x2bea <u8g_i2c_wait+0x8>
    2bea:	cd b7       	in	r28, 0x3d	; 61
    2bec:	de b7       	in	r29, 0x3e	; 62
    2bee:	20 ed       	ldi	r18, 0xD0	; 208
    2bf0:	37 e0       	ldi	r19, 0x07	; 7
    2bf2:	3a 83       	std	Y+2, r19	; 0x02
    2bf4:	29 83       	std	Y+1, r18	; 0x01
    2bf6:	90 91 bc 00 	lds	r25, 0x00BC	; 0x8000bc <__TEXT_REGION_LENGTH__+0x7e00bc>
    2bfa:	98 23       	and	r25, r24
    2bfc:	99 f4       	brne	.+38     	; 0x2c24 <u8g_i2c_wait+0x42>
    2bfe:	29 81       	ldd	r18, Y+1	; 0x01
    2c00:	3a 81       	ldd	r19, Y+2	; 0x02
    2c02:	23 2b       	or	r18, r19
    2c04:	51 f4       	brne	.+20     	; 0x2c1a <u8g_i2c_wait+0x38>
    2c06:	80 91 19 01 	lds	r24, 0x0119	; 0x800119 <u8g_i2c_opt>
    2c0a:	18 2f       	mov	r17, r24
    2c0c:	12 70       	andi	r17, 0x02	; 2
    2c0e:	81 fd       	sbrc	r24, 1
    2c10:	09 c0       	rjmp	.+18     	; 0x2c24 <u8g_i2c_wait+0x42>
    2c12:	81 e0       	ldi	r24, 0x01	; 1
    2c14:	0e 94 d6 15 	call	0x2bac	; 0x2bac <u8g_i2c_set_error>
    2c18:	06 c0       	rjmp	.+12     	; 0x2c26 <u8g_i2c_wait+0x44>
    2c1a:	29 81       	ldd	r18, Y+1	; 0x01
    2c1c:	3a 81       	ldd	r19, Y+2	; 0x02
    2c1e:	21 50       	subi	r18, 0x01	; 1
    2c20:	31 09       	sbc	r19, r1
    2c22:	e7 cf       	rjmp	.-50     	; 0x2bf2 <u8g_i2c_wait+0x10>
    2c24:	11 e0       	ldi	r17, 0x01	; 1
    2c26:	81 2f       	mov	r24, r17
    2c28:	0f 90       	pop	r0
    2c2a:	0f 90       	pop	r0
    2c2c:	df 91       	pop	r29
    2c2e:	cf 91       	pop	r28
    2c30:	1f 91       	pop	r17
    2c32:	08 95       	ret

00002c34 <u8g_i2c_start>:
    2c34:	cf 93       	push	r28
    2c36:	c8 2f       	mov	r28, r24
    2c38:	84 ea       	ldi	r24, 0xA4	; 164
    2c3a:	80 93 bc 00 	sts	0x00BC, r24	; 0x8000bc <__TEXT_REGION_LENGTH__+0x7e00bc>
    2c3e:	61 e0       	ldi	r22, 0x01	; 1
    2c40:	80 e8       	ldi	r24, 0x80	; 128
    2c42:	0e 94 f1 15 	call	0x2be2	; 0x2be2 <u8g_i2c_wait>
    2c46:	88 23       	and	r24, r24
    2c48:	59 f0       	breq	.+22     	; 0x2c60 <u8g_i2c_start+0x2c>
    2c4a:	90 91 b9 00 	lds	r25, 0x00B9	; 0x8000b9 <__TEXT_REGION_LENGTH__+0x7e00b9>
    2c4e:	98 7f       	andi	r25, 0xF8	; 248
    2c50:	98 30       	cpi	r25, 0x08	; 8
    2c52:	41 f0       	breq	.+16     	; 0x2c64 <u8g_i2c_start+0x30>
    2c54:	90 31       	cpi	r25, 0x10	; 16
    2c56:	31 f0       	breq	.+12     	; 0x2c64 <u8g_i2c_start+0x30>
    2c58:	61 e0       	ldi	r22, 0x01	; 1
    2c5a:	82 e0       	ldi	r24, 0x02	; 2
    2c5c:	0e 94 d6 15 	call	0x2bac	; 0x2bac <u8g_i2c_set_error>
    2c60:	c0 e0       	ldi	r28, 0x00	; 0
    2c62:	1c c0       	rjmp	.+56     	; 0x2c9c <u8g_i2c_start+0x68>
    2c64:	c0 93 bb 00 	sts	0x00BB, r28	; 0x8000bb <__TEXT_REGION_LENGTH__+0x7e00bb>
    2c68:	84 e8       	ldi	r24, 0x84	; 132
    2c6a:	80 93 bc 00 	sts	0x00BC, r24	; 0x8000bc <__TEXT_REGION_LENGTH__+0x7e00bc>
    2c6e:	62 e0       	ldi	r22, 0x02	; 2
    2c70:	80 e8       	ldi	r24, 0x80	; 128
    2c72:	0e 94 f1 15 	call	0x2be2	; 0x2be2 <u8g_i2c_wait>
    2c76:	88 23       	and	r24, r24
    2c78:	99 f3       	breq	.-26     	; 0x2c60 <u8g_i2c_start+0x2c>
    2c7a:	80 91 19 01 	lds	r24, 0x0119	; 0x800119 <u8g_i2c_opt>
    2c7e:	c8 2f       	mov	r28, r24
    2c80:	c2 70       	andi	r28, 0x02	; 2
    2c82:	81 fd       	sbrc	r24, 1
    2c84:	0a c0       	rjmp	.+20     	; 0x2c9a <u8g_i2c_start+0x66>
    2c86:	80 91 b9 00 	lds	r24, 0x00B9	; 0x8000b9 <__TEXT_REGION_LENGTH__+0x7e00b9>
    2c8a:	88 7f       	andi	r24, 0xF8	; 248
    2c8c:	88 31       	cpi	r24, 0x18	; 24
    2c8e:	29 f0       	breq	.+10     	; 0x2c9a <u8g_i2c_start+0x66>
    2c90:	62 e0       	ldi	r22, 0x02	; 2
    2c92:	82 e0       	ldi	r24, 0x02	; 2
    2c94:	0e 94 d6 15 	call	0x2bac	; 0x2bac <u8g_i2c_set_error>
    2c98:	01 c0       	rjmp	.+2      	; 0x2c9c <u8g_i2c_start+0x68>
    2c9a:	c1 e0       	ldi	r28, 0x01	; 1
    2c9c:	8c 2f       	mov	r24, r28
    2c9e:	cf 91       	pop	r28
    2ca0:	08 95       	ret

00002ca2 <u8g_i2c_send_byte>:
    2ca2:	cf 93       	push	r28
    2ca4:	80 93 bb 00 	sts	0x00BB, r24	; 0x8000bb <__TEXT_REGION_LENGTH__+0x7e00bb>
    2ca8:	84 e8       	ldi	r24, 0x84	; 132
    2caa:	80 93 bc 00 	sts	0x00BC, r24	; 0x8000bc <__TEXT_REGION_LENGTH__+0x7e00bc>
    2cae:	63 e0       	ldi	r22, 0x03	; 3
    2cb0:	80 e8       	ldi	r24, 0x80	; 128
    2cb2:	0e 94 f1 15 	call	0x2be2	; 0x2be2 <u8g_i2c_wait>
    2cb6:	c8 2f       	mov	r28, r24
    2cb8:	88 23       	and	r24, r24
    2cba:	89 f0       	breq	.+34     	; 0x2cde <u8g_i2c_send_byte+0x3c>
    2cbc:	80 91 19 01 	lds	r24, 0x0119	; 0x800119 <u8g_i2c_opt>
    2cc0:	c8 2f       	mov	r28, r24
    2cc2:	c2 70       	andi	r28, 0x02	; 2
    2cc4:	81 fd       	sbrc	r24, 1
    2cc6:	0a c0       	rjmp	.+20     	; 0x2cdc <u8g_i2c_send_byte+0x3a>
    2cc8:	80 91 b9 00 	lds	r24, 0x00B9	; 0x8000b9 <__TEXT_REGION_LENGTH__+0x7e00b9>
    2ccc:	88 7f       	andi	r24, 0xF8	; 248
    2cce:	88 32       	cpi	r24, 0x28	; 40
    2cd0:	29 f0       	breq	.+10     	; 0x2cdc <u8g_i2c_send_byte+0x3a>
    2cd2:	63 e0       	ldi	r22, 0x03	; 3
    2cd4:	82 e0       	ldi	r24, 0x02	; 2
    2cd6:	0e 94 d6 15 	call	0x2bac	; 0x2bac <u8g_i2c_set_error>
    2cda:	01 c0       	rjmp	.+2      	; 0x2cde <u8g_i2c_send_byte+0x3c>
    2cdc:	c1 e0       	ldi	r28, 0x01	; 1
    2cde:	8c 2f       	mov	r24, r28
    2ce0:	cf 91       	pop	r28
    2ce2:	08 95       	ret

00002ce4 <u8g_i2c_stop>:
    2ce4:	84 e9       	ldi	r24, 0x94	; 148
    2ce6:	80 93 bc 00 	sts	0x00BC, r24	; 0x8000bc <__TEXT_REGION_LENGTH__+0x7e00bc>
    2cea:	64 e0       	ldi	r22, 0x04	; 4
    2cec:	80 e1       	ldi	r24, 0x10	; 16
    2cee:	0c 94 f1 15 	jmp	0x2be2	; 0x2be2 <u8g_i2c_wait>

00002cf2 <u8g_Delay>:
    2cf2:	28 ef       	ldi	r18, 0xF8	; 248
    2cf4:	30 e0       	ldi	r19, 0x00	; 0
    2cf6:	00 97       	sbiw	r24, 0x00	; 0
    2cf8:	29 f0       	breq	.+10     	; 0x2d04 <u8g_Delay+0x12>
    2cfa:	f9 01       	movw	r30, r18
    2cfc:	31 97       	sbiw	r30, 0x01	; 1
    2cfe:	f1 f7       	brne	.-4      	; 0x2cfc <u8g_Delay+0xa>
    2d00:	01 97       	sbiw	r24, 0x01	; 1
    2d02:	f9 cf       	rjmp	.-14     	; 0x2cf6 <u8g_Delay+0x4>
    2d04:	08 95       	ret

00002d06 <u8g_dev_ssd1306_128x64_fn>:
    2d06:	af 92       	push	r10
    2d08:	bf 92       	push	r11
    2d0a:	cf 92       	push	r12
    2d0c:	df 92       	push	r13
    2d0e:	ff 92       	push	r15
    2d10:	0f 93       	push	r16
    2d12:	1f 93       	push	r17
    2d14:	cf 93       	push	r28
    2d16:	df 93       	push	r29
    2d18:	8c 01       	movw	r16, r24
    2d1a:	eb 01       	movw	r28, r22
    2d1c:	f4 2e       	mov	r15, r20
    2d1e:	69 01       	movw	r12, r18
    2d20:	80 e1       	ldi	r24, 0x10	; 16
    2d22:	48 17       	cp	r20, r24
    2d24:	09 f4       	brne	.+2      	; 0x2d28 <u8g_dev_ssd1306_128x64_fn+0x22>
    2d26:	54 c0       	rjmp	.+168    	; 0x2dd0 <u8g_dev_ssd1306_128x64_fn+0xca>
    2d28:	84 17       	cp	r24, r20
    2d2a:	00 f1       	brcs	.+64     	; 0x2d6c <u8g_dev_ssd1306_128x64_fn+0x66>
    2d2c:	ea e0       	ldi	r30, 0x0A	; 10
    2d2e:	4e 17       	cp	r20, r30
    2d30:	21 f1       	breq	.+72     	; 0x2d7a <u8g_dev_ssd1306_128x64_fn+0x74>
    2d32:	ff e0       	ldi	r31, 0x0F	; 15
    2d34:	4f 13       	cpse	r20, r31
    2d36:	57 c0       	rjmp	.+174    	; 0x2de6 <u8g_dev_ssd1306_128x64_fn+0xe0>
    2d38:	41 e0       	ldi	r20, 0x01	; 1
    2d3a:	c8 01       	movw	r24, r16
    2d3c:	0e 94 cc 14 	call	0x2998	; 0x2998 <u8g_SetChipSelect>
    2d40:	40 e0       	ldi	r20, 0x00	; 0
    2d42:	be 01       	movw	r22, r28
    2d44:	c8 01       	movw	r24, r16
    2d46:	0e 94 e9 14 	call	0x29d2	; 0x29d2 <u8g_SetAddress>
    2d4a:	41 e8       	ldi	r20, 0x81	; 129
    2d4c:	be 01       	movw	r22, r28
    2d4e:	c8 01       	movw	r24, r16
    2d50:	0e 94 f2 14 	call	0x29e4	; 0x29e4 <u8g_WriteByte>
    2d54:	f6 01       	movw	r30, r12
    2d56:	40 81       	ld	r20, Z
    2d58:	be 01       	movw	r22, r28
    2d5a:	c8 01       	movw	r24, r16
    2d5c:	0e 94 f2 14 	call	0x29e4	; 0x29e4 <u8g_WriteByte>
    2d60:	40 e0       	ldi	r20, 0x00	; 0
    2d62:	be 01       	movw	r22, r28
    2d64:	c8 01       	movw	r24, r16
    2d66:	0e 94 cc 14 	call	0x2998	; 0x2998 <u8g_SetChipSelect>
    2d6a:	3b c0       	rjmp	.+118    	; 0x2de2 <u8g_dev_ssd1306_128x64_fn+0xdc>
    2d6c:	81 e1       	ldi	r24, 0x11	; 17
    2d6e:	48 17       	cp	r20, r24
    2d70:	91 f1       	breq	.+100    	; 0x2dd6 <u8g_dev_ssd1306_128x64_fn+0xd0>
    2d72:	e5 e1       	ldi	r30, 0x15	; 21
    2d74:	4e 17       	cp	r20, r30
    2d76:	61 f0       	breq	.+24     	; 0x2d90 <u8g_dev_ssd1306_128x64_fn+0x8a>
    2d78:	36 c0       	rjmp	.+108    	; 0x2de6 <u8g_dev_ssd1306_128x64_fn+0xe0>
    2d7a:	42 e0       	ldi	r20, 0x02	; 2
    2d7c:	c8 01       	movw	r24, r16
    2d7e:	0e 94 c3 14 	call	0x2986	; 0x2986 <u8g_InitCom>
    2d82:	44 e8       	ldi	r20, 0x84	; 132
    2d84:	50 e0       	ldi	r21, 0x00	; 0
    2d86:	be 01       	movw	r22, r28
    2d88:	c8 01       	movw	r24, r16
    2d8a:	0e 94 02 15 	call	0x2a04	; 0x2a04 <u8g_WriteEscSeqP>
    2d8e:	2b c0       	rjmp	.+86     	; 0x2de6 <u8g_dev_ssd1306_128x64_fn+0xe0>
    2d90:	aa 80       	ldd	r10, Y+2	; 0x02
    2d92:	bb 80       	ldd	r11, Y+3	; 0x03
    2d94:	4c e7       	ldi	r20, 0x7C	; 124
    2d96:	50 e0       	ldi	r21, 0x00	; 0
    2d98:	c8 01       	movw	r24, r16
    2d9a:	0e 94 02 15 	call	0x2a04	; 0x2a04 <u8g_WriteEscSeqP>
    2d9e:	f5 01       	movw	r30, r10
    2da0:	44 81       	ldd	r20, Z+4	; 0x04
    2da2:	40 6b       	ori	r20, 0xB0	; 176
    2da4:	be 01       	movw	r22, r28
    2da6:	c8 01       	movw	r24, r16
    2da8:	0e 94 f2 14 	call	0x29e4	; 0x29e4 <u8g_WriteByte>
    2dac:	41 e0       	ldi	r20, 0x01	; 1
    2dae:	be 01       	movw	r22, r28
    2db0:	c8 01       	movw	r24, r16
    2db2:	0e 94 e9 14 	call	0x29d2	; 0x29d2 <u8g_SetAddress>
    2db6:	ae 01       	movw	r20, r28
    2db8:	b8 01       	movw	r22, r16
    2dba:	c5 01       	movw	r24, r10
    2dbc:	0e 94 f6 1a 	call	0x35ec	; 0x35ec <u8g_pb_WriteBuffer>
    2dc0:	88 23       	and	r24, r24
    2dc2:	01 f1       	breq	.+64     	; 0x2e04 <u8g_dev_ssd1306_128x64_fn+0xfe>
    2dc4:	40 e0       	ldi	r20, 0x00	; 0
    2dc6:	be 01       	movw	r22, r28
    2dc8:	c8 01       	movw	r24, r16
    2dca:	0e 94 cc 14 	call	0x2998	; 0x2998 <u8g_SetChipSelect>
    2dce:	0b c0       	rjmp	.+22     	; 0x2de6 <u8g_dev_ssd1306_128x64_fn+0xe0>
    2dd0:	43 e7       	ldi	r20, 0x73	; 115
    2dd2:	50 e0       	ldi	r21, 0x00	; 0
    2dd4:	02 c0       	rjmp	.+4      	; 0x2dda <u8g_dev_ssd1306_128x64_fn+0xd4>
    2dd6:	48 e6       	ldi	r20, 0x68	; 104
    2dd8:	50 e0       	ldi	r21, 0x00	; 0
    2dda:	be 01       	movw	r22, r28
    2ddc:	c8 01       	movw	r24, r16
    2dde:	0e 94 02 15 	call	0x2a04	; 0x2a04 <u8g_WriteEscSeqP>
    2de2:	81 e0       	ldi	r24, 0x01	; 1
    2de4:	0f c0       	rjmp	.+30     	; 0x2e04 <u8g_dev_ssd1306_128x64_fn+0xfe>
    2de6:	96 01       	movw	r18, r12
    2de8:	4f 2d       	mov	r20, r15
    2dea:	be 01       	movw	r22, r28
    2dec:	c8 01       	movw	r24, r16
    2dee:	df 91       	pop	r29
    2df0:	cf 91       	pop	r28
    2df2:	1f 91       	pop	r17
    2df4:	0f 91       	pop	r16
    2df6:	ff 90       	pop	r15
    2df8:	df 90       	pop	r13
    2dfa:	cf 90       	pop	r12
    2dfc:	bf 90       	pop	r11
    2dfe:	af 90       	pop	r10
    2e00:	0c 94 62 1b 	jmp	0x36c4	; 0x36c4 <u8g_dev_pb8v1_base_fn>
    2e04:	df 91       	pop	r29
    2e06:	cf 91       	pop	r28
    2e08:	1f 91       	pop	r17
    2e0a:	0f 91       	pop	r16
    2e0c:	ff 90       	pop	r15
    2e0e:	df 90       	pop	r13
    2e10:	cf 90       	pop	r12
    2e12:	bf 90       	pop	r11
    2e14:	af 90       	pop	r10
    2e16:	08 95       	ret

00002e18 <u8g_font_get_word>:
    2e18:	fc 01       	movw	r30, r24
    2e1a:	e6 0f       	add	r30, r22
    2e1c:	f1 1d       	adc	r31, r1
    2e1e:	84 91       	lpm	r24, Z
    2e20:	90 e0       	ldi	r25, 0x00	; 0
    2e22:	98 2f       	mov	r25, r24
    2e24:	88 27       	eor	r24, r24
    2e26:	31 96       	adiw	r30, 0x01	; 1
    2e28:	e4 91       	lpm	r30, Z
    2e2a:	8e 0f       	add	r24, r30
    2e2c:	91 1d       	adc	r25, r1
    2e2e:	08 95       	ret

00002e30 <u8g_font_GetFormat>:
    2e30:	fc 01       	movw	r30, r24
    2e32:	84 91       	lpm	r24, Z
    2e34:	08 95       	ret

00002e36 <u8g_font_GetFontGlyphStructureSize>:
    2e36:	0e 94 18 17 	call	0x2e30	; 0x2e30 <u8g_font_GetFormat>
    2e3a:	88 23       	and	r24, r24
    2e3c:	21 f0       	breq	.+8      	; 0x2e46 <u8g_font_GetFontGlyphStructureSize+0x10>
    2e3e:	82 30       	cpi	r24, 0x02	; 2
    2e40:	11 f0       	breq	.+4      	; 0x2e46 <u8g_font_GetFontGlyphStructureSize+0x10>
    2e42:	83 e0       	ldi	r24, 0x03	; 3
    2e44:	08 95       	ret
    2e46:	86 e0       	ldi	r24, 0x06	; 6
    2e48:	08 95       	ret

00002e4a <u8g_font_calc_vref_font>:
    2e4a:	80 e0       	ldi	r24, 0x00	; 0
    2e4c:	08 95       	ret

00002e4e <u8g_font_GetEncoding65Pos>:
    2e4e:	66 e0       	ldi	r22, 0x06	; 6
    2e50:	0c 94 0c 17 	jmp	0x2e18	; 0x2e18 <u8g_font_get_word>

00002e54 <u8g_font_GetEncoding97Pos>:
    2e54:	68 e0       	ldi	r22, 0x08	; 8
    2e56:	0c 94 0c 17 	jmp	0x2e18	; 0x2e18 <u8g_font_get_word>

00002e5a <u8g_font_GetFontStartEncoding>:
    2e5a:	0a 96       	adiw	r24, 0x0a	; 10
    2e5c:	fc 01       	movw	r30, r24
    2e5e:	84 91       	lpm	r24, Z
    2e60:	08 95       	ret

00002e62 <u8g_font_GetFontEndEncoding>:
    2e62:	0b 96       	adiw	r24, 0x0b	; 11
    2e64:	fc 01       	movw	r30, r24
    2e66:	84 91       	lpm	r24, Z
    2e68:	08 95       	ret

00002e6a <u8g_GetGlyph>:
    2e6a:	bf 92       	push	r11
    2e6c:	cf 92       	push	r12
    2e6e:	df 92       	push	r13
    2e70:	ef 92       	push	r14
    2e72:	ff 92       	push	r15
    2e74:	0f 93       	push	r16
    2e76:	1f 93       	push	r17
    2e78:	cf 93       	push	r28
    2e7a:	df 93       	push	r29
    2e7c:	8c 01       	movw	r16, r24
    2e7e:	e6 2e       	mov	r14, r22
    2e80:	dc 01       	movw	r26, r24
    2e82:	14 96       	adiw	r26, 0x04	; 4
    2e84:	cd 91       	ld	r28, X+
    2e86:	dc 91       	ld	r29, X
    2e88:	15 97       	sbiw	r26, 0x05	; 5
    2e8a:	ce 01       	movw	r24, r28
    2e8c:	0e 94 18 17 	call	0x2e30	; 0x2e30 <u8g_font_GetFormat>
    2e90:	f8 2e       	mov	r15, r24
    2e92:	f8 01       	movw	r30, r16
    2e94:	84 81       	ldd	r24, Z+4	; 0x04
    2e96:	95 81       	ldd	r25, Z+5	; 0x05
    2e98:	0e 94 1b 17 	call	0x2e36	; 0x2e36 <u8g_font_GetFontGlyphStructureSize>
    2e9c:	c8 2e       	mov	r12, r24
    2e9e:	f1 e0       	ldi	r31, 0x01	; 1
    2ea0:	ff 12       	cpse	r15, r31
    2ea2:	03 c0       	rjmp	.+6      	; 0x2eaa <u8g_GetGlyph+0x40>
    2ea4:	2f e0       	ldi	r18, 0x0F	; 15
    2ea6:	b2 2e       	mov	r11, r18
    2ea8:	02 c0       	rjmp	.+4      	; 0x2eae <u8g_GetGlyph+0x44>
    2eaa:	bb 24       	eor	r11, r11
    2eac:	ba 94       	dec	r11
    2eae:	d8 01       	movw	r26, r16
    2eb0:	14 96       	adiw	r26, 0x04	; 4
    2eb2:	8d 91       	ld	r24, X+
    2eb4:	9c 91       	ld	r25, X
    2eb6:	15 97       	sbiw	r26, 0x05	; 5
    2eb8:	0e 94 2d 17 	call	0x2e5a	; 0x2e5a <u8g_font_GetFontStartEncoding>
    2ebc:	f8 2e       	mov	r15, r24
    2ebe:	f8 01       	movw	r30, r16
    2ec0:	84 81       	ldd	r24, Z+4	; 0x04
    2ec2:	95 81       	ldd	r25, Z+5	; 0x05
    2ec4:	0e 94 31 17 	call	0x2e62	; 0x2e62 <u8g_font_GetFontEndEncoding>
    2ec8:	d8 2e       	mov	r13, r24
    2eca:	d8 01       	movw	r26, r16
    2ecc:	14 96       	adiw	r26, 0x04	; 4
    2ece:	8d 91       	ld	r24, X+
    2ed0:	9c 91       	ld	r25, X
    2ed2:	15 97       	sbiw	r26, 0x05	; 5
    2ed4:	0e 94 2a 17 	call	0x2e54	; 0x2e54 <u8g_font_GetEncoding97Pos>
    2ed8:	b0 e6       	ldi	r27, 0x60	; 96
    2eda:	be 15       	cp	r27, r14
    2edc:	38 f4       	brcc	.+14     	; 0x2eec <u8g_GetGlyph+0x82>
    2ede:	00 97       	sbiw	r24, 0x00	; 0
    2ee0:	29 f0       	breq	.+10     	; 0x2eec <u8g_GetGlyph+0x82>
    2ee2:	c8 0f       	add	r28, r24
    2ee4:	d9 1f       	adc	r29, r25
    2ee6:	91 e6       	ldi	r25, 0x61	; 97
    2ee8:	f9 2e       	mov	r15, r25
    2eea:	10 c0       	rjmp	.+32     	; 0x2f0c <u8g_GetGlyph+0xa2>
    2eec:	f8 01       	movw	r30, r16
    2eee:	84 81       	ldd	r24, Z+4	; 0x04
    2ef0:	95 81       	ldd	r25, Z+5	; 0x05
    2ef2:	0e 94 27 17 	call	0x2e4e	; 0x2e4e <u8g_font_GetEncoding65Pos>
    2ef6:	f0 e4       	ldi	r31, 0x40	; 64
    2ef8:	fe 15       	cp	r31, r14
    2efa:	38 f4       	brcc	.+14     	; 0x2f0a <u8g_GetGlyph+0xa0>
    2efc:	00 97       	sbiw	r24, 0x00	; 0
    2efe:	29 f0       	breq	.+10     	; 0x2f0a <u8g_GetGlyph+0xa0>
    2f00:	c8 0f       	add	r28, r24
    2f02:	d9 1f       	adc	r29, r25
    2f04:	81 e4       	ldi	r24, 0x41	; 65
    2f06:	f8 2e       	mov	r15, r24
    2f08:	01 c0       	rjmp	.+2      	; 0x2f0c <u8g_GetGlyph+0xa2>
    2f0a:	61 96       	adiw	r28, 0x11	; 17
    2f0c:	de 14       	cp	r13, r14
    2f0e:	90 f4       	brcc	.+36     	; 0x2f34 <u8g_GetGlyph+0xca>
    2f10:	d8 01       	movw	r26, r16
    2f12:	50 96       	adiw	r26, 0x10	; 16
    2f14:	1c 92       	st	X, r1
    2f16:	50 97       	sbiw	r26, 0x10	; 16
    2f18:	53 96       	adiw	r26, 0x13	; 19
    2f1a:	1c 92       	st	X, r1
    2f1c:	53 97       	sbiw	r26, 0x13	; 19
    2f1e:	54 96       	adiw	r26, 0x14	; 20
    2f20:	1c 92       	st	X, r1
    2f22:	54 97       	sbiw	r26, 0x14	; 20
    2f24:	51 96       	adiw	r26, 0x11	; 17
    2f26:	1c 92       	st	X, r1
    2f28:	51 97       	sbiw	r26, 0x11	; 17
    2f2a:	52 96       	adiw	r26, 0x12	; 18
    2f2c:	1c 92       	st	X, r1
    2f2e:	80 e0       	ldi	r24, 0x00	; 0
    2f30:	90 e0       	ldi	r25, 0x00	; 0
    2f32:	67 c0       	rjmp	.+206    	; 0x3002 <u8g_GetGlyph+0x198>
    2f34:	df 14       	cp	r13, r15
    2f36:	60 f3       	brcs	.-40     	; 0x2f10 <u8g_GetGlyph+0xa6>
    2f38:	8c 2d       	mov	r24, r12
    2f3a:	90 e0       	ldi	r25, 0x00	; 0
    2f3c:	fe 01       	movw	r30, r28
    2f3e:	24 91       	lpm	r18, Z
    2f40:	2f 3f       	cpi	r18, 0xFF	; 255
    2f42:	11 f4       	brne	.+4      	; 0x2f48 <u8g_GetGlyph+0xde>
    2f44:	21 96       	adiw	r28, 0x01	; 1
    2f46:	58 c0       	rjmp	.+176    	; 0x2ff8 <u8g_GetGlyph+0x18e>
    2f48:	fe 10       	cpse	r15, r14
    2f4a:	4d c0       	rjmp	.+154    	; 0x2fe6 <u8g_GetGlyph+0x17c>
    2f4c:	d8 01       	movw	r26, r16
    2f4e:	14 96       	adiw	r26, 0x04	; 4
    2f50:	8d 91       	ld	r24, X+
    2f52:	9c 91       	ld	r25, X
    2f54:	15 97       	sbiw	r26, 0x05	; 5
    2f56:	0e 94 18 17 	call	0x2e30	; 0x2e30 <u8g_font_GetFormat>
    2f5a:	9e 01       	movw	r18, r28
    2f5c:	2f 5f       	subi	r18, 0xFF	; 255
    2f5e:	3f 4f       	sbci	r19, 0xFF	; 255
    2f60:	fe 01       	movw	r30, r28
    2f62:	88 23       	and	r24, r24
    2f64:	11 f0       	breq	.+4      	; 0x2f6a <u8g_GetGlyph+0x100>
    2f66:	82 30       	cpi	r24, 0x02	; 2
    2f68:	e1 f4       	brne	.+56     	; 0x2fa2 <u8g_GetGlyph+0x138>
    2f6a:	84 91       	lpm	r24, Z
    2f6c:	d8 01       	movw	r26, r16
    2f6e:	53 96       	adiw	r26, 0x13	; 19
    2f70:	8c 93       	st	X, r24
    2f72:	53 97       	sbiw	r26, 0x13	; 19
    2f74:	f9 01       	movw	r30, r18
    2f76:	24 91       	lpm	r18, Z
    2f78:	54 96       	adiw	r26, 0x14	; 20
    2f7a:	2c 93       	st	X, r18
    2f7c:	54 97       	sbiw	r26, 0x14	; 20
    2f7e:	fe 01       	movw	r30, r28
    2f80:	33 96       	adiw	r30, 0x03	; 3
    2f82:	e4 91       	lpm	r30, Z
    2f84:	50 96       	adiw	r26, 0x10	; 16
    2f86:	ec 93       	st	X, r30
    2f88:	50 97       	sbiw	r26, 0x10	; 16
    2f8a:	fe 01       	movw	r30, r28
    2f8c:	34 96       	adiw	r30, 0x04	; 4
    2f8e:	e4 91       	lpm	r30, Z
    2f90:	51 96       	adiw	r26, 0x11	; 17
    2f92:	ec 93       	st	X, r30
    2f94:	51 97       	sbiw	r26, 0x11	; 17
    2f96:	fe 01       	movw	r30, r28
    2f98:	35 96       	adiw	r30, 0x05	; 5
    2f9a:	e4 91       	lpm	r30, Z
    2f9c:	52 96       	adiw	r26, 0x12	; 18
    2f9e:	ec 93       	st	X, r30
    2fa0:	20 c0       	rjmp	.+64     	; 0x2fe2 <u8g_GetGlyph+0x178>
    2fa2:	84 91       	lpm	r24, Z
    2fa4:	98 2f       	mov	r25, r24
    2fa6:	9f 70       	andi	r25, 0x0F	; 15
    2fa8:	92 50       	subi	r25, 0x02	; 2
    2faa:	d8 01       	movw	r26, r16
    2fac:	52 96       	adiw	r26, 0x12	; 18
    2fae:	9c 93       	st	X, r25
    2fb0:	52 97       	sbiw	r26, 0x12	; 18
    2fb2:	82 95       	swap	r24
    2fb4:	8f 70       	andi	r24, 0x0F	; 15
    2fb6:	51 96       	adiw	r26, 0x11	; 17
    2fb8:	8c 93       	st	X, r24
    2fba:	51 97       	sbiw	r26, 0x11	; 17
    2fbc:	f9 01       	movw	r30, r18
    2fbe:	24 91       	lpm	r18, Z
    2fc0:	82 2f       	mov	r24, r18
    2fc2:	8f 70       	andi	r24, 0x0F	; 15
    2fc4:	54 96       	adiw	r26, 0x14	; 20
    2fc6:	8c 93       	st	X, r24
    2fc8:	54 97       	sbiw	r26, 0x14	; 20
    2fca:	22 95       	swap	r18
    2fcc:	2f 70       	andi	r18, 0x0F	; 15
    2fce:	53 96       	adiw	r26, 0x13	; 19
    2fd0:	2c 93       	st	X, r18
    2fd2:	53 97       	sbiw	r26, 0x13	; 19
    2fd4:	fe 01       	movw	r30, r28
    2fd6:	32 96       	adiw	r30, 0x02	; 2
    2fd8:	e4 91       	lpm	r30, Z
    2fda:	e2 95       	swap	r30
    2fdc:	ef 70       	andi	r30, 0x0F	; 15
    2fde:	50 96       	adiw	r26, 0x10	; 16
    2fe0:	ec 93       	st	X, r30
    2fe2:	ce 01       	movw	r24, r28
    2fe4:	0e c0       	rjmp	.+28     	; 0x3002 <u8g_GetGlyph+0x198>
    2fe6:	fe 01       	movw	r30, r28
    2fe8:	32 96       	adiw	r30, 0x02	; 2
    2fea:	e4 91       	lpm	r30, Z
    2fec:	eb 21       	and	r30, r11
    2fee:	9c 01       	movw	r18, r24
    2ff0:	2e 0f       	add	r18, r30
    2ff2:	31 1d       	adc	r19, r1
    2ff4:	c2 0f       	add	r28, r18
    2ff6:	d3 1f       	adc	r29, r19
    2ff8:	fd 14       	cp	r15, r13
    2ffa:	09 f4       	brne	.+2      	; 0x2ffe <u8g_GetGlyph+0x194>
    2ffc:	89 cf       	rjmp	.-238    	; 0x2f10 <u8g_GetGlyph+0xa6>
    2ffe:	f3 94       	inc	r15
    3000:	9d cf       	rjmp	.-198    	; 0x2f3c <u8g_GetGlyph+0xd2>
    3002:	df 91       	pop	r29
    3004:	cf 91       	pop	r28
    3006:	1f 91       	pop	r17
    3008:	0f 91       	pop	r16
    300a:	ff 90       	pop	r15
    300c:	ef 90       	pop	r14
    300e:	df 90       	pop	r13
    3010:	cf 90       	pop	r12
    3012:	bf 90       	pop	r11
    3014:	08 95       	ret

00003016 <u8g_draw_glyph>:
    3016:	4f 92       	push	r4
    3018:	5f 92       	push	r5
    301a:	6f 92       	push	r6
    301c:	7f 92       	push	r7
    301e:	9f 92       	push	r9
    3020:	af 92       	push	r10
    3022:	bf 92       	push	r11
    3024:	cf 92       	push	r12
    3026:	df 92       	push	r13
    3028:	ef 92       	push	r14
    302a:	ff 92       	push	r15
    302c:	0f 93       	push	r16
    302e:	1f 93       	push	r17
    3030:	cf 93       	push	r28
    3032:	df 93       	push	r29
    3034:	1f 92       	push	r1
    3036:	cd b7       	in	r28, 0x3d	; 61
    3038:	de b7       	in	r29, 0x3e	; 62
    303a:	2c 01       	movw	r4, r24
    303c:	c6 2e       	mov	r12, r22
    303e:	94 2e       	mov	r9, r20
    3040:	62 2f       	mov	r22, r18
    3042:	0e 94 35 17 	call	0x2e6a	; 0x2e6a <u8g_GetGlyph>
    3046:	7c 01       	movw	r14, r24
    3048:	89 2b       	or	r24, r25
    304a:	09 f4       	brne	.+2      	; 0x304e <u8g_draw_glyph+0x38>
    304c:	3d c0       	rjmp	.+122    	; 0x30c8 <u8g_draw_glyph+0xb2>
    304e:	f2 01       	movw	r30, r4
    3050:	84 81       	ldd	r24, Z+4	; 0x04
    3052:	95 81       	ldd	r25, Z+5	; 0x05
    3054:	0e 94 1b 17 	call	0x2e36	; 0x2e36 <u8g_font_GetFontGlyphStructureSize>
    3058:	b8 2e       	mov	r11, r24
    305a:	f2 01       	movw	r30, r4
    305c:	13 89       	ldd	r17, Z+19	; 0x13
    305e:	04 89       	ldd	r16, Z+20	; 0x14
    3060:	81 89       	ldd	r24, Z+17	; 0x11
    3062:	c8 0e       	add	r12, r24
    3064:	82 89       	ldd	r24, Z+18	; 0x12
    3066:	98 1a       	sub	r9, r24
    3068:	d9 2c       	mov	r13, r9
    306a:	d0 1a       	sub	r13, r16
    306c:	21 2f       	mov	r18, r17
    306e:	4d 2d       	mov	r20, r13
    3070:	6c 2d       	mov	r22, r12
    3072:	c2 01       	movw	r24, r4
    3074:	0e 94 a1 14 	call	0x2942	; 0x2942 <u8g_IsBBXIntersection>
    3078:	88 23       	and	r24, r24
    307a:	19 f1       	breq	.+70     	; 0x30c2 <u8g_draw_glyph+0xac>
    307c:	eb 0c       	add	r14, r11
    307e:	f1 1c       	adc	r15, r1
    3080:	19 5f       	subi	r17, 0xF9	; 249
    3082:	16 95       	lsr	r17
    3084:	16 95       	lsr	r17
    3086:	16 95       	lsr	r17
    3088:	61 2e       	mov	r6, r17
    308a:	71 2c       	mov	r7, r1
    308c:	d9 14       	cp	r13, r9
    308e:	c9 f0       	breq	.+50     	; 0x30c2 <u8g_draw_glyph+0xac>
    3090:	3c 2d       	mov	r19, r12
    3092:	57 01       	movw	r10, r14
    3094:	8a 2d       	mov	r24, r10
    3096:	8e 19       	sub	r24, r14
    3098:	81 17       	cp	r24, r17
    309a:	78 f4       	brcc	.+30     	; 0x30ba <u8g_draw_glyph+0xa4>
    309c:	f5 01       	movw	r30, r10
    309e:	04 91       	lpm	r16, Z
    30a0:	20 e0       	ldi	r18, 0x00	; 0
    30a2:	4d 2d       	mov	r20, r13
    30a4:	63 2f       	mov	r22, r19
    30a6:	c2 01       	movw	r24, r4
    30a8:	39 83       	std	Y+1, r19	; 0x01
    30aa:	0e 94 82 1a 	call	0x3504	; 0x3504 <u8g_Draw8Pixel>
    30ae:	ff ef       	ldi	r31, 0xFF	; 255
    30b0:	af 1a       	sub	r10, r31
    30b2:	bf 0a       	sbc	r11, r31
    30b4:	39 81       	ldd	r19, Y+1	; 0x01
    30b6:	38 5f       	subi	r19, 0xF8	; 248
    30b8:	ed cf       	rjmp	.-38     	; 0x3094 <u8g_draw_glyph+0x7e>
    30ba:	e6 0c       	add	r14, r6
    30bc:	f7 1c       	adc	r15, r7
    30be:	d3 94       	inc	r13
    30c0:	e5 cf       	rjmp	.-54     	; 0x308c <u8g_draw_glyph+0x76>
    30c2:	f2 01       	movw	r30, r4
    30c4:	80 89       	ldd	r24, Z+16	; 0x10
    30c6:	01 c0       	rjmp	.+2      	; 0x30ca <u8g_draw_glyph+0xb4>
    30c8:	80 e0       	ldi	r24, 0x00	; 0
    30ca:	0f 90       	pop	r0
    30cc:	df 91       	pop	r29
    30ce:	cf 91       	pop	r28
    30d0:	1f 91       	pop	r17
    30d2:	0f 91       	pop	r16
    30d4:	ff 90       	pop	r15
    30d6:	ef 90       	pop	r14
    30d8:	df 90       	pop	r13
    30da:	cf 90       	pop	r12
    30dc:	bf 90       	pop	r11
    30de:	af 90       	pop	r10
    30e0:	9f 90       	pop	r9
    30e2:	7f 90       	pop	r7
    30e4:	6f 90       	pop	r6
    30e6:	5f 90       	pop	r5
    30e8:	4f 90       	pop	r4
    30ea:	08 95       	ret

000030ec <u8g_DrawStr>:
    30ec:	af 92       	push	r10
    30ee:	bf 92       	push	r11
    30f0:	df 92       	push	r13
    30f2:	ef 92       	push	r14
    30f4:	ff 92       	push	r15
    30f6:	0f 93       	push	r16
    30f8:	1f 93       	push	r17
    30fa:	cf 93       	push	r28
    30fc:	df 93       	push	r29
    30fe:	00 d0       	rcall	.+0      	; 0x3100 <u8g_DrawStr+0x14>
    3100:	cd b7       	in	r28, 0x3d	; 61
    3102:	de b7       	in	r29, 0x3e	; 62
    3104:	7c 01       	movw	r14, r24
    3106:	d6 2e       	mov	r13, r22
    3108:	04 2f       	mov	r16, r20
    310a:	dc 01       	movw	r26, r24
    310c:	55 96       	adiw	r26, 0x15	; 21
    310e:	ed 91       	ld	r30, X+
    3110:	fc 91       	ld	r31, X
    3112:	56 97       	sbiw	r26, 0x16	; 22
    3114:	29 83       	std	Y+1, r18	; 0x01
    3116:	3a 83       	std	Y+2, r19	; 0x02
    3118:	09 95       	icall
    311a:	08 0f       	add	r16, r24
    311c:	29 81       	ldd	r18, Y+1	; 0x01
    311e:	a2 2e       	mov	r10, r18
    3120:	3a 81       	ldd	r19, Y+2	; 0x02
    3122:	b3 2e       	mov	r11, r19
    3124:	10 e0       	ldi	r17, 0x00	; 0
    3126:	f5 01       	movw	r30, r10
    3128:	21 91       	ld	r18, Z+
    312a:	5f 01       	movw	r10, r30
    312c:	22 23       	and	r18, r18
    312e:	41 f0       	breq	.+16     	; 0x3140 <u8g_DrawStr+0x54>
    3130:	40 2f       	mov	r20, r16
    3132:	6d 2d       	mov	r22, r13
    3134:	c7 01       	movw	r24, r14
    3136:	0e 94 0b 18 	call	0x3016	; 0x3016 <u8g_draw_glyph>
    313a:	d8 0e       	add	r13, r24
    313c:	18 0f       	add	r17, r24
    313e:	f3 cf       	rjmp	.-26     	; 0x3126 <u8g_DrawStr+0x3a>
    3140:	81 2f       	mov	r24, r17
    3142:	0f 90       	pop	r0
    3144:	0f 90       	pop	r0
    3146:	df 91       	pop	r29
    3148:	cf 91       	pop	r28
    314a:	1f 91       	pop	r17
    314c:	0f 91       	pop	r16
    314e:	ff 90       	pop	r15
    3150:	ef 90       	pop	r14
    3152:	df 90       	pop	r13
    3154:	bf 90       	pop	r11
    3156:	af 90       	pop	r10
    3158:	08 95       	ret

0000315a <u8g_DrawStrP>:
    315a:	df 92       	push	r13
    315c:	ef 92       	push	r14
    315e:	ff 92       	push	r15
    3160:	0f 93       	push	r16
    3162:	1f 93       	push	r17
    3164:	cf 93       	push	r28
    3166:	df 93       	push	r29
    3168:	7c 01       	movw	r14, r24
    316a:	d6 2f       	mov	r29, r22
    316c:	d4 2e       	mov	r13, r20
    316e:	89 01       	movw	r16, r18
    3170:	dc 01       	movw	r26, r24
    3172:	55 96       	adiw	r26, 0x15	; 21
    3174:	ed 91       	ld	r30, X+
    3176:	fc 91       	ld	r31, X
    3178:	56 97       	sbiw	r26, 0x16	; 22
    317a:	09 95       	icall
    317c:	d8 0e       	add	r13, r24
    317e:	c0 e0       	ldi	r28, 0x00	; 0
    3180:	f8 01       	movw	r30, r16
    3182:	24 91       	lpm	r18, Z
    3184:	22 23       	and	r18, r18
    3186:	51 f0       	breq	.+20     	; 0x319c <u8g_DrawStrP+0x42>
    3188:	4d 2d       	mov	r20, r13
    318a:	6d 2f       	mov	r22, r29
    318c:	c7 01       	movw	r24, r14
    318e:	0e 94 0b 18 	call	0x3016	; 0x3016 <u8g_draw_glyph>
    3192:	d8 0f       	add	r29, r24
    3194:	c8 0f       	add	r28, r24
    3196:	0f 5f       	subi	r16, 0xFF	; 255
    3198:	1f 4f       	sbci	r17, 0xFF	; 255
    319a:	f2 cf       	rjmp	.-28     	; 0x3180 <u8g_DrawStrP+0x26>
    319c:	8c 2f       	mov	r24, r28
    319e:	df 91       	pop	r29
    31a0:	cf 91       	pop	r28
    31a2:	1f 91       	pop	r17
    31a4:	0f 91       	pop	r16
    31a6:	ff 90       	pop	r15
    31a8:	ef 90       	pop	r14
    31aa:	df 90       	pop	r13
    31ac:	08 95       	ret

000031ae <u8g_UpdateRefHeight>:
    31ae:	dc 01       	movw	r26, r24
    31b0:	14 96       	adiw	r26, 0x04	; 4
    31b2:	2d 91       	ld	r18, X+
    31b4:	3c 91       	ld	r19, X
    31b6:	15 97       	sbiw	r26, 0x05	; 5
    31b8:	21 15       	cp	r18, r1
    31ba:	31 05       	cpc	r19, r1
    31bc:	09 f4       	brne	.+2      	; 0x31c0 <u8g_UpdateRefHeight+0x12>
    31be:	3f c0       	rjmp	.+126    	; 0x323e <u8g_UpdateRefHeight+0x90>
    31c0:	57 96       	adiw	r26, 0x17	; 23
    31c2:	8c 91       	ld	r24, X
    31c4:	57 97       	sbiw	r26, 0x17	; 23
    31c6:	f9 01       	movw	r30, r18
    31c8:	81 11       	cpse	r24, r1
    31ca:	08 c0       	rjmp	.+16     	; 0x31dc <u8g_UpdateRefHeight+0x2e>
    31cc:	35 96       	adiw	r30, 0x05	; 5
    31ce:	e4 91       	lpm	r30, Z
    31d0:	58 96       	adiw	r26, 0x18	; 24
    31d2:	ec 93       	st	X, r30
    31d4:	58 97       	sbiw	r26, 0x18	; 24
    31d6:	f9 01       	movw	r30, r18
    31d8:	3c 96       	adiw	r30, 0x0c	; 12
    31da:	11 c0       	rjmp	.+34     	; 0x31fe <u8g_UpdateRefHeight+0x50>
    31dc:	81 30       	cpi	r24, 0x01	; 1
    31de:	41 f4       	brne	.+16     	; 0x31f0 <u8g_UpdateRefHeight+0x42>
    31e0:	3f 96       	adiw	r30, 0x0f	; 15
    31e2:	e4 91       	lpm	r30, Z
    31e4:	58 96       	adiw	r26, 0x18	; 24
    31e6:	ec 93       	st	X, r30
    31e8:	58 97       	sbiw	r26, 0x18	; 24
    31ea:	f9 01       	movw	r30, r18
    31ec:	70 96       	adiw	r30, 0x10	; 16
    31ee:	07 c0       	rjmp	.+14     	; 0x31fe <u8g_UpdateRefHeight+0x50>
    31f0:	3d 96       	adiw	r30, 0x0d	; 13
    31f2:	e4 91       	lpm	r30, Z
    31f4:	58 96       	adiw	r26, 0x18	; 24
    31f6:	ec 93       	st	X, r30
    31f8:	58 97       	sbiw	r26, 0x18	; 24
    31fa:	f9 01       	movw	r30, r18
    31fc:	3e 96       	adiw	r30, 0x0e	; 14
    31fe:	e4 91       	lpm	r30, Z
    3200:	59 96       	adiw	r26, 0x19	; 25
    3202:	ec 93       	st	X, r30
    3204:	59 97       	sbiw	r26, 0x19	; 25
    3206:	58 96       	adiw	r26, 0x18	; 24
    3208:	8c 91       	ld	r24, X
    320a:	58 97       	sbiw	r26, 0x18	; 24
    320c:	08 2e       	mov	r0, r24
    320e:	00 0c       	add	r0, r0
    3210:	99 0b       	sbc	r25, r25
    3212:	59 96       	adiw	r26, 0x19	; 25
    3214:	2c 91       	ld	r18, X
    3216:	59 97       	sbiw	r26, 0x19	; 25
    3218:	82 1b       	sub	r24, r18
    321a:	91 09       	sbc	r25, r1
    321c:	27 fd       	sbrc	r18, 7
    321e:	93 95       	inc	r25
    3220:	5a 96       	adiw	r26, 0x1a	; 26
    3222:	2c 91       	ld	r18, X
    3224:	5a 97       	sbiw	r26, 0x1a	; 26
    3226:	20 34       	cpi	r18, 0x40	; 64
    3228:	41 f0       	breq	.+16     	; 0x323a <u8g_UpdateRefHeight+0x8c>
    322a:	82 9f       	mul	r24, r18
    322c:	c0 01       	movw	r24, r0
    322e:	11 24       	eor	r1, r1
    3230:	26 e0       	ldi	r18, 0x06	; 6
    3232:	96 95       	lsr	r25
    3234:	87 95       	ror	r24
    3236:	2a 95       	dec	r18
    3238:	e1 f7       	brne	.-8      	; 0x3232 <u8g_UpdateRefHeight+0x84>
    323a:	5b 96       	adiw	r26, 0x1b	; 27
    323c:	8c 93       	st	X, r24
    323e:	08 95       	ret

00003240 <u8g_SetFontPosBaseline>:
    3240:	25 e2       	ldi	r18, 0x25	; 37
    3242:	37 e1       	ldi	r19, 0x17	; 23
    3244:	fc 01       	movw	r30, r24
    3246:	36 8b       	std	Z+22, r19	; 0x16
    3248:	25 8b       	std	Z+21, r18	; 0x15
    324a:	08 95       	ret

0000324c <u8g_SetFont>:
    324c:	cf 93       	push	r28
    324e:	df 93       	push	r29
    3250:	fc 01       	movw	r30, r24
    3252:	24 81       	ldd	r18, Z+4	; 0x04
    3254:	35 81       	ldd	r19, Z+5	; 0x05
    3256:	26 17       	cp	r18, r22
    3258:	37 07       	cpc	r19, r23
    325a:	49 f0       	breq	.+18     	; 0x326e <u8g_SetFont+0x22>
    325c:	ec 01       	movw	r28, r24
    325e:	75 83       	std	Z+5, r23	; 0x05
    3260:	64 83       	std	Z+4, r22	; 0x04
    3262:	0e 94 d7 18 	call	0x31ae	; 0x31ae <u8g_UpdateRefHeight>
    3266:	85 e2       	ldi	r24, 0x25	; 37
    3268:	97 e1       	ldi	r25, 0x17	; 23
    326a:	9e 8b       	std	Y+22, r25	; 0x16
    326c:	8d 8b       	std	Y+21, r24	; 0x15
    326e:	df 91       	pop	r29
    3270:	cf 91       	pop	r28
    3272:	08 95       	ret

00003274 <u8g_init_data>:
    3274:	1f 93       	push	r17
    3276:	cf 93       	push	r28
    3278:	df 93       	push	r29
    327a:	ec 01       	movw	r28, r24
    327c:	1d 82       	std	Y+5, r1	; 0x05
    327e:	1c 82       	std	Y+4, r1	; 0x04
    3280:	1f 82       	std	Y+7, r1	; 0x07
    3282:	1e 82       	std	Y+6, r1	; 0x06
    3284:	19 86       	std	Y+9, r1	; 0x09
    3286:	81 e0       	ldi	r24, 0x01	; 1
    3288:	88 87       	std	Y+8, r24	; 0x08
    328a:	82 e2       	ldi	r24, 0x22	; 34
    328c:	8a 87       	std	Y+10, r24	; 0x0a
    328e:	1f 86       	std	Y+15, r1	; 0x0f
    3290:	1e 86       	std	Y+14, r1	; 0x0e
    3292:	fe 01       	movw	r30, r28
    3294:	b3 96       	adiw	r30, 0x23	; 35
    3296:	ce 01       	movw	r24, r28
    3298:	c1 96       	adiw	r24, 0x31	; 49
    329a:	2f ef       	ldi	r18, 0xFF	; 255
    329c:	21 93       	st	Z+, r18
    329e:	e8 17       	cp	r30, r24
    32a0:	f9 07       	cpc	r31, r25
    32a2:	e1 f7       	brne	.-8      	; 0x329c <u8g_init_data+0x28>
    32a4:	11 e0       	ldi	r17, 0x01	; 1
    32a6:	18 a3       	std	Y+32, r17	; 0x20
    32a8:	ce 01       	movw	r24, r28
    32aa:	0e 94 20 19 	call	0x3240	; 0x3240 <u8g_SetFontPosBaseline>
    32ae:	1f 8b       	std	Y+23, r17	; 0x17
    32b0:	18 8e       	std	Y+24, r1	; 0x18
    32b2:	19 8e       	std	Y+25, r1	; 0x19
    32b4:	80 e4       	ldi	r24, 0x40	; 64
    32b6:	8a 8f       	std	Y+26, r24	; 0x1a
    32b8:	1b 8e       	std	Y+27, r1	; 0x1b
    32ba:	8e e8       	ldi	r24, 0x8E	; 142
    32bc:	9c e1       	ldi	r25, 0x1C	; 28
    32be:	9a ab       	std	Y+50, r25	; 0x32
    32c0:	89 ab       	std	Y+49, r24	; 0x31
    32c2:	df 91       	pop	r29
    32c4:	cf 91       	pop	r28
    32c6:	1f 91       	pop	r17
    32c8:	08 95       	ret

000032ca <u8g_call_dev_fn>:
    32ca:	db 01       	movw	r26, r22
    32cc:	ed 91       	ld	r30, X+
    32ce:	fc 91       	ld	r31, X
    32d0:	09 94       	ijmp

000032d2 <u8g_InitLL>:
    32d2:	ef 92       	push	r14
    32d4:	ff 92       	push	r15
    32d6:	1f 93       	push	r17
    32d8:	cf 93       	push	r28
    32da:	df 93       	push	r29
    32dc:	00 d0       	rcall	.+0      	; 0x32de <u8g_InitLL+0xc>
    32de:	cd b7       	in	r28, 0x3d	; 61
    32e0:	de b7       	in	r29, 0x3e	; 62
    32e2:	7c 01       	movw	r14, r24
    32e4:	dc 01       	movw	r26, r24
    32e6:	d1 96       	adiw	r26, 0x31	; 49
    32e8:	ed 91       	ld	r30, X+
    32ea:	fc 91       	ld	r31, X
    32ec:	d2 97       	sbiw	r26, 0x32	; 50
    32ee:	82 e0       	ldi	r24, 0x02	; 2
    32f0:	69 83       	std	Y+1, r22	; 0x01
    32f2:	7a 83       	std	Y+2, r23	; 0x02
    32f4:	09 95       	icall
    32f6:	20 e0       	ldi	r18, 0x00	; 0
    32f8:	30 e0       	ldi	r19, 0x00	; 0
    32fa:	4a e0       	ldi	r20, 0x0A	; 10
    32fc:	69 81       	ldd	r22, Y+1	; 0x01
    32fe:	7a 81       	ldd	r23, Y+2	; 0x02
    3300:	c7 01       	movw	r24, r14
    3302:	0e 94 65 19 	call	0x32ca	; 0x32ca <u8g_call_dev_fn>
    3306:	18 2f       	mov	r17, r24
    3308:	d7 01       	movw	r26, r14
    330a:	d1 96       	adiw	r26, 0x31	; 49
    330c:	ed 91       	ld	r30, X+
    330e:	fc 91       	ld	r31, X
    3310:	d2 97       	sbiw	r26, 0x32	; 50
    3312:	83 e0       	ldi	r24, 0x03	; 3
    3314:	09 95       	icall
    3316:	d7 01       	movw	r26, r14
    3318:	d1 96       	adiw	r26, 0x31	; 49
    331a:	ed 91       	ld	r30, X+
    331c:	fc 91       	ld	r31, X
    331e:	d2 97       	sbiw	r26, 0x32	; 50
    3320:	80 e0       	ldi	r24, 0x00	; 0
    3322:	09 95       	icall
    3324:	81 2f       	mov	r24, r17
    3326:	0f 90       	pop	r0
    3328:	0f 90       	pop	r0
    332a:	df 91       	pop	r29
    332c:	cf 91       	pop	r28
    332e:	1f 91       	pop	r17
    3330:	ff 90       	pop	r15
    3332:	ef 90       	pop	r14
    3334:	08 95       	ret

00003336 <u8g_FirstPageLL>:
    3336:	0f 93       	push	r16
    3338:	1f 93       	push	r17
    333a:	cf 93       	push	r28
    333c:	df 93       	push	r29
    333e:	ec 01       	movw	r28, r24
    3340:	8b 01       	movw	r16, r22
    3342:	e9 a9       	ldd	r30, Y+49	; 0x31
    3344:	fa a9       	ldd	r31, Y+50	; 0x32
    3346:	82 e0       	ldi	r24, 0x02	; 2
    3348:	09 95       	icall
    334a:	e9 a9       	ldd	r30, Y+49	; 0x31
    334c:	fa a9       	ldd	r31, Y+50	; 0x32
    334e:	81 e0       	ldi	r24, 0x01	; 1
    3350:	09 95       	icall
    3352:	20 e0       	ldi	r18, 0x00	; 0
    3354:	30 e0       	ldi	r19, 0x00	; 0
    3356:	44 e1       	ldi	r20, 0x14	; 20
    3358:	b8 01       	movw	r22, r16
    335a:	ce 01       	movw	r24, r28
    335c:	0e 94 65 19 	call	0x32ca	; 0x32ca <u8g_call_dev_fn>
    3360:	9e 01       	movw	r18, r28
    3362:	2d 5c       	subi	r18, 0xCD	; 205
    3364:	3f 4f       	sbci	r19, 0xFF	; 255
    3366:	47 e1       	ldi	r20, 0x17	; 23
    3368:	b8 01       	movw	r22, r16
    336a:	ce 01       	movw	r24, r28
    336c:	0e 94 65 19 	call	0x32ca	; 0x32ca <u8g_call_dev_fn>
    3370:	e9 a9       	ldd	r30, Y+49	; 0x31
    3372:	fa a9       	ldd	r31, Y+50	; 0x32
    3374:	80 e0       	ldi	r24, 0x00	; 0
    3376:	df 91       	pop	r29
    3378:	cf 91       	pop	r28
    337a:	1f 91       	pop	r17
    337c:	0f 91       	pop	r16
    337e:	09 94       	ijmp

00003380 <u8g_NextPageLL>:
    3380:	ef 92       	push	r14
    3382:	ff 92       	push	r15
    3384:	1f 93       	push	r17
    3386:	cf 93       	push	r28
    3388:	df 93       	push	r29
    338a:	ec 01       	movw	r28, r24
    338c:	7b 01       	movw	r14, r22
    338e:	e9 a9       	ldd	r30, Y+49	; 0x31
    3390:	fa a9       	ldd	r31, Y+50	; 0x32
    3392:	82 e0       	ldi	r24, 0x02	; 2
    3394:	09 95       	icall
    3396:	e9 a9       	ldd	r30, Y+49	; 0x31
    3398:	fa a9       	ldd	r31, Y+50	; 0x32
    339a:	81 e0       	ldi	r24, 0x01	; 1
    339c:	09 95       	icall
    339e:	20 e0       	ldi	r18, 0x00	; 0
    33a0:	30 e0       	ldi	r19, 0x00	; 0
    33a2:	45 e1       	ldi	r20, 0x15	; 21
    33a4:	b7 01       	movw	r22, r14
    33a6:	ce 01       	movw	r24, r28
    33a8:	0e 94 65 19 	call	0x32ca	; 0x32ca <u8g_call_dev_fn>
    33ac:	18 2f       	mov	r17, r24
    33ae:	88 23       	and	r24, r24
    33b0:	41 f0       	breq	.+16     	; 0x33c2 <u8g_NextPageLL+0x42>
    33b2:	9e 01       	movw	r18, r28
    33b4:	2d 5c       	subi	r18, 0xCD	; 205
    33b6:	3f 4f       	sbci	r19, 0xFF	; 255
    33b8:	47 e1       	ldi	r20, 0x17	; 23
    33ba:	b7 01       	movw	r22, r14
    33bc:	ce 01       	movw	r24, r28
    33be:	0e 94 65 19 	call	0x32ca	; 0x32ca <u8g_call_dev_fn>
    33c2:	e9 a9       	ldd	r30, Y+49	; 0x31
    33c4:	fa a9       	ldd	r31, Y+50	; 0x32
    33c6:	80 e0       	ldi	r24, 0x00	; 0
    33c8:	09 95       	icall
    33ca:	81 2f       	mov	r24, r17
    33cc:	df 91       	pop	r29
    33ce:	cf 91       	pop	r28
    33d0:	1f 91       	pop	r17
    33d2:	ff 90       	pop	r15
    33d4:	ef 90       	pop	r14
    33d6:	08 95       	ret

000033d8 <u8g_DrawPixelLL>:
    33d8:	fc 01       	movw	r30, r24
    33da:	44 8f       	std	Z+28, r20	; 0x1c
    33dc:	25 8f       	std	Z+29, r18	; 0x1d
    33de:	9c 01       	movw	r18, r24
    33e0:	24 5e       	subi	r18, 0xE4	; 228
    33e2:	3f 4f       	sbci	r19, 0xFF	; 255
    33e4:	42 e3       	ldi	r20, 0x32	; 50
    33e6:	0c 94 65 19 	jmp	0x32ca	; 0x32ca <u8g_call_dev_fn>

000033ea <u8g_GetWidthLL>:
    33ea:	cf 93       	push	r28
    33ec:	df 93       	push	r29
    33ee:	1f 92       	push	r1
    33f0:	cd b7       	in	r28, 0x3d	; 61
    33f2:	de b7       	in	r29, 0x3e	; 62
    33f4:	9e 01       	movw	r18, r28
    33f6:	2f 5f       	subi	r18, 0xFF	; 255
    33f8:	3f 4f       	sbci	r19, 0xFF	; 255
    33fa:	46 e4       	ldi	r20, 0x46	; 70
    33fc:	0e 94 65 19 	call	0x32ca	; 0x32ca <u8g_call_dev_fn>
    3400:	89 81       	ldd	r24, Y+1	; 0x01
    3402:	0f 90       	pop	r0
    3404:	df 91       	pop	r29
    3406:	cf 91       	pop	r28
    3408:	08 95       	ret

0000340a <u8g_GetHeightLL>:
    340a:	cf 93       	push	r28
    340c:	df 93       	push	r29
    340e:	1f 92       	push	r1
    3410:	cd b7       	in	r28, 0x3d	; 61
    3412:	de b7       	in	r29, 0x3e	; 62
    3414:	9e 01       	movw	r18, r28
    3416:	2f 5f       	subi	r18, 0xFF	; 255
    3418:	3f 4f       	sbci	r19, 0xFF	; 255
    341a:	47 e4       	ldi	r20, 0x47	; 71
    341c:	0e 94 65 19 	call	0x32ca	; 0x32ca <u8g_call_dev_fn>
    3420:	89 81       	ldd	r24, Y+1	; 0x01
    3422:	0f 90       	pop	r0
    3424:	df 91       	pop	r29
    3426:	cf 91       	pop	r28
    3428:	08 95       	ret

0000342a <u8g_GetModeLL>:
    342a:	20 e0       	ldi	r18, 0x00	; 0
    342c:	30 e0       	ldi	r19, 0x00	; 0
    342e:	48 e4       	ldi	r20, 0x48	; 72
    3430:	0c 94 65 19 	jmp	0x32ca	; 0x32ca <u8g_call_dev_fn>

00003434 <u8g_UpdateDimension>:
    3434:	cf 93       	push	r28
    3436:	df 93       	push	r29
    3438:	ec 01       	movw	r28, r24
    343a:	6a 81       	ldd	r22, Y+2	; 0x02
    343c:	7b 81       	ldd	r23, Y+3	; 0x03
    343e:	0e 94 f5 19 	call	0x33ea	; 0x33ea <u8g_GetWidthLL>
    3442:	88 83       	st	Y, r24
    3444:	6a 81       	ldd	r22, Y+2	; 0x02
    3446:	7b 81       	ldd	r23, Y+3	; 0x03
    3448:	ce 01       	movw	r24, r28
    344a:	0e 94 05 1a 	call	0x340a	; 0x340a <u8g_GetHeightLL>
    344e:	89 83       	std	Y+1, r24	; 0x01
    3450:	6a 81       	ldd	r22, Y+2	; 0x02
    3452:	7b 81       	ldd	r23, Y+3	; 0x03
    3454:	ce 01       	movw	r24, r28
    3456:	0e 94 15 1a 	call	0x342a	; 0x342a <u8g_GetModeLL>
    345a:	8b 87       	std	Y+11, r24	; 0x0b
    345c:	9e 01       	movw	r18, r28
    345e:	2d 5c       	subi	r18, 0xCD	; 205
    3460:	3f 4f       	sbci	r19, 0xFF	; 255
    3462:	6a 81       	ldd	r22, Y+2	; 0x02
    3464:	7b 81       	ldd	r23, Y+3	; 0x03
    3466:	47 e1       	ldi	r20, 0x17	; 23
    3468:	ce 01       	movw	r24, r28
    346a:	df 91       	pop	r29
    346c:	cf 91       	pop	r28
    346e:	0c 94 65 19 	jmp	0x32ca	; 0x32ca <u8g_call_dev_fn>

00003472 <u8g_Begin>:
    3472:	cf 93       	push	r28
    3474:	df 93       	push	r29
    3476:	ec 01       	movw	r28, r24
    3478:	6a 81       	ldd	r22, Y+2	; 0x02
    347a:	7b 81       	ldd	r23, Y+3	; 0x03
    347c:	0e 94 69 19 	call	0x32d2	; 0x32d2 <u8g_InitLL>
    3480:	88 23       	and	r24, r24
    3482:	21 f0       	breq	.+8      	; 0x348c <u8g_Begin+0x1a>
    3484:	ce 01       	movw	r24, r28
    3486:	0e 94 1a 1a 	call	0x3434	; 0x3434 <u8g_UpdateDimension>
    348a:	81 e0       	ldi	r24, 0x01	; 1
    348c:	df 91       	pop	r29
    348e:	cf 91       	pop	r28
    3490:	08 95       	ret

00003492 <u8g_InitI2C>:
    3492:	ef 92       	push	r14
    3494:	ff 92       	push	r15
    3496:	0f 93       	push	r16
    3498:	1f 93       	push	r17
    349a:	cf 93       	push	r28
    349c:	df 93       	push	r29
    349e:	1f 92       	push	r1
    34a0:	cd b7       	in	r28, 0x3d	; 61
    34a2:	de b7       	in	r29, 0x3e	; 62
    34a4:	7c 01       	movw	r14, r24
    34a6:	8b 01       	movw	r16, r22
    34a8:	49 83       	std	Y+1, r20	; 0x01
    34aa:	0e 94 3a 19 	call	0x3274	; 0x3274 <u8g_init_data>
    34ae:	f7 01       	movw	r30, r14
    34b0:	13 83       	std	Z+3, r17	; 0x03
    34b2:	02 83       	std	Z+2, r16	; 0x02
    34b4:	49 81       	ldd	r20, Y+1	; 0x01
    34b6:	46 a7       	std	Z+46, r20	; 0x2e
    34b8:	c7 01       	movw	r24, r14
    34ba:	0f 90       	pop	r0
    34bc:	df 91       	pop	r29
    34be:	cf 91       	pop	r28
    34c0:	1f 91       	pop	r17
    34c2:	0f 91       	pop	r16
    34c4:	ff 90       	pop	r15
    34c6:	ef 90       	pop	r14
    34c8:	0c 94 39 1a 	jmp	0x3472	; 0x3472 <u8g_Begin>

000034cc <u8g_FirstPage>:
    34cc:	fc 01       	movw	r30, r24
    34ce:	62 81       	ldd	r22, Z+2	; 0x02
    34d0:	73 81       	ldd	r23, Z+3	; 0x03
    34d2:	0c 94 9b 19 	jmp	0x3336	; 0x3336 <u8g_FirstPageLL>

000034d6 <u8g_NextPage>:
    34d6:	cf 93       	push	r28
    34d8:	df 93       	push	r29
    34da:	ec 01       	movw	r28, r24
    34dc:	ee 85       	ldd	r30, Y+14	; 0x0e
    34de:	ff 85       	ldd	r31, Y+15	; 0x0f
    34e0:	30 97       	sbiw	r30, 0x00	; 0
    34e2:	09 f0       	breq	.+2      	; 0x34e6 <u8g_NextPage+0x10>
    34e4:	09 95       	icall
    34e6:	6a 81       	ldd	r22, Y+2	; 0x02
    34e8:	7b 81       	ldd	r23, Y+3	; 0x03
    34ea:	ce 01       	movw	r24, r28
    34ec:	df 91       	pop	r29
    34ee:	cf 91       	pop	r28
    34f0:	0c 94 c0 19 	jmp	0x3380	; 0x3380 <u8g_NextPageLL>

000034f4 <u8g_DrawPixel>:
    34f4:	36 2f       	mov	r19, r22
    34f6:	24 2f       	mov	r18, r20
    34f8:	fc 01       	movw	r30, r24
    34fa:	62 81       	ldd	r22, Z+2	; 0x02
    34fc:	73 81       	ldd	r23, Z+3	; 0x03
    34fe:	43 2f       	mov	r20, r19
    3500:	0c 94 ec 19 	jmp	0x33d8	; 0x33d8 <u8g_DrawPixelLL>

00003504 <u8g_Draw8Pixel>:
    3504:	0f 93       	push	r16
    3506:	fc 01       	movw	r30, r24
    3508:	82 81       	ldd	r24, Z+2	; 0x02
    350a:	93 81       	ldd	r25, Z+3	; 0x03
    350c:	64 8f       	std	Z+28, r22	; 0x1c
    350e:	45 8f       	std	Z+29, r20	; 0x1d
    3510:	27 8f       	std	Z+31, r18	; 0x1f
    3512:	06 8f       	std	Z+30, r16	; 0x1e
    3514:	9f 01       	movw	r18, r30
    3516:	24 5e       	subi	r18, 0xE4	; 228
    3518:	3f 4f       	sbci	r19, 0xFF	; 255
    351a:	4b e3       	ldi	r20, 0x3B	; 59
    351c:	bc 01       	movw	r22, r24
    351e:	cf 01       	movw	r24, r30
    3520:	0f 91       	pop	r16
    3522:	0c 94 65 19 	jmp	0x32ca	; 0x32ca <u8g_call_dev_fn>

00003526 <u8g_page_First>:
    3526:	fc 01       	movw	r30, r24
    3528:	12 82       	std	Z+2, r1	; 0x02
    352a:	80 81       	ld	r24, Z
    352c:	81 50       	subi	r24, 0x01	; 1
    352e:	83 83       	std	Z+3, r24	; 0x03
    3530:	14 82       	std	Z+4, r1	; 0x04
    3532:	08 95       	ret

00003534 <u8g_page_Next>:
    3534:	fc 01       	movw	r30, r24
    3536:	80 81       	ld	r24, Z
    3538:	92 81       	ldd	r25, Z+2	; 0x02
    353a:	98 0f       	add	r25, r24
    353c:	92 83       	std	Z+2, r25	; 0x02
    353e:	21 81       	ldd	r18, Z+1	; 0x01
    3540:	92 17       	cp	r25, r18
    3542:	60 f4       	brcc	.+24     	; 0x355c <u8g_page_Next+0x28>
    3544:	94 81       	ldd	r25, Z+4	; 0x04
    3546:	9f 5f       	subi	r25, 0xFF	; 255
    3548:	94 83       	std	Z+4, r25	; 0x04
    354a:	93 81       	ldd	r25, Z+3	; 0x03
    354c:	89 0f       	add	r24, r25
    354e:	82 17       	cp	r24, r18
    3550:	10 f0       	brcs	.+4      	; 0x3556 <u8g_page_Next+0x22>
    3552:	8f ef       	ldi	r24, 0xFF	; 255
    3554:	82 0f       	add	r24, r18
    3556:	83 83       	std	Z+3, r24	; 0x03
    3558:	81 e0       	ldi	r24, 0x01	; 1
    355a:	08 95       	ret
    355c:	80 e0       	ldi	r24, 0x00	; 0
    355e:	08 95       	ret

00003560 <u8g_pb_Clear>:
    3560:	dc 01       	movw	r26, r24
    3562:	16 96       	adiw	r26, 0x06	; 6
    3564:	ed 91       	ld	r30, X+
    3566:	fc 91       	ld	r31, X
    3568:	17 97       	sbiw	r26, 0x07	; 7
    356a:	15 96       	adiw	r26, 0x05	; 5
    356c:	8c 91       	ld	r24, X
    356e:	9f 01       	movw	r18, r30
    3570:	28 0f       	add	r18, r24
    3572:	31 1d       	adc	r19, r1
    3574:	c9 01       	movw	r24, r18
    3576:	11 92       	st	Z+, r1
    3578:	e8 17       	cp	r30, r24
    357a:	f9 07       	cpc	r31, r25
    357c:	e1 f7       	brne	.-8      	; 0x3576 <u8g_pb_Clear+0x16>
    357e:	08 95       	ret

00003580 <u8g_pb_IsYIntersection>:
    3580:	fc 01       	movw	r30, r24
    3582:	91 e0       	ldi	r25, 0x01	; 1
    3584:	83 81       	ldd	r24, Z+3	; 0x03
    3586:	86 17       	cp	r24, r22
    3588:	08 f4       	brcc	.+2      	; 0x358c <u8g_pb_IsYIntersection+0xc>
    358a:	90 e0       	ldi	r25, 0x00	; 0
    358c:	31 e0       	ldi	r19, 0x01	; 1
    358e:	46 17       	cp	r20, r22
    3590:	08 f0       	brcs	.+2      	; 0x3594 <u8g_pb_IsYIntersection+0x14>
    3592:	30 e0       	ldi	r19, 0x00	; 0
    3594:	83 2f       	mov	r24, r19
    3596:	89 2b       	or	r24, r25
    3598:	21 e0       	ldi	r18, 0x01	; 1
    359a:	52 81       	ldd	r21, Z+2	; 0x02
    359c:	45 17       	cp	r20, r21
    359e:	08 f4       	brcc	.+2      	; 0x35a2 <u8g_pb_IsYIntersection+0x22>
    35a0:	20 e0       	ldi	r18, 0x00	; 0
    35a2:	28 23       	and	r18, r24
    35a4:	83 2f       	mov	r24, r19
    35a6:	89 23       	and	r24, r25
    35a8:	82 2b       	or	r24, r18
    35aa:	08 95       	ret

000035ac <u8g_pb_GetPageBox>:
    35ac:	dc 01       	movw	r26, r24
    35ae:	fb 01       	movw	r30, r22
    35b0:	10 82       	st	Z, r1
    35b2:	12 96       	adiw	r26, 0x02	; 2
    35b4:	8c 91       	ld	r24, X
    35b6:	12 97       	sbiw	r26, 0x02	; 2
    35b8:	81 83       	std	Z+1, r24	; 0x01
    35ba:	15 96       	adiw	r26, 0x05	; 5
    35bc:	8c 91       	ld	r24, X
    35be:	15 97       	sbiw	r26, 0x05	; 5
    35c0:	81 50       	subi	r24, 0x01	; 1
    35c2:	82 83       	std	Z+2, r24	; 0x02
    35c4:	13 96       	adiw	r26, 0x03	; 3
    35c6:	8c 91       	ld	r24, X
    35c8:	83 83       	std	Z+3, r24	; 0x03
    35ca:	08 95       	ret

000035cc <u8g_pb_Is8PixelVisible>:
    35cc:	fb 01       	movw	r30, r22
    35ce:	41 81       	ldd	r20, Z+1	; 0x01
    35d0:	23 81       	ldd	r18, Z+3	; 0x03
    35d2:	21 30       	cpi	r18, 0x01	; 1
    35d4:	29 f0       	breq	.+10     	; 0x35e0 <u8g_pb_Is8PixelVisible+0x14>
    35d6:	23 30       	cpi	r18, 0x03	; 3
    35d8:	31 f4       	brne	.+12     	; 0x35e6 <u8g_pb_Is8PixelVisible+0x1a>
    35da:	68 ef       	ldi	r22, 0xF8	; 248
    35dc:	64 0f       	add	r22, r20
    35de:	04 c0       	rjmp	.+8      	; 0x35e8 <u8g_pb_Is8PixelVisible+0x1c>
    35e0:	64 2f       	mov	r22, r20
    35e2:	48 5f       	subi	r20, 0xF8	; 248
    35e4:	01 c0       	rjmp	.+2      	; 0x35e8 <u8g_pb_Is8PixelVisible+0x1c>
    35e6:	64 2f       	mov	r22, r20
    35e8:	0c 94 c0 1a 	jmp	0x3580	; 0x3580 <u8g_pb_IsYIntersection>

000035ec <u8g_pb_WriteBuffer>:
    35ec:	fc 01       	movw	r30, r24
    35ee:	cb 01       	movw	r24, r22
    35f0:	ba 01       	movw	r22, r20
    35f2:	26 81       	ldd	r18, Z+6	; 0x06
    35f4:	37 81       	ldd	r19, Z+7	; 0x07
    35f6:	45 81       	ldd	r20, Z+5	; 0x05
    35f8:	0c 94 fb 14 	jmp	0x29f6	; 0x29f6 <u8g_WriteSequence>

000035fc <u8g_pb8v1_set_pixel>:
    35fc:	dc 01       	movw	r26, r24
    35fe:	16 96       	adiw	r26, 0x06	; 6
    3600:	ed 91       	ld	r30, X+
    3602:	fc 91       	ld	r31, X
    3604:	17 97       	sbiw	r26, 0x07	; 7
    3606:	12 96       	adiw	r26, 0x02	; 2
    3608:	8c 91       	ld	r24, X
    360a:	48 1b       	sub	r20, r24
    360c:	47 70       	andi	r20, 0x07	; 7
    360e:	81 e0       	ldi	r24, 0x01	; 1
    3610:	90 e0       	ldi	r25, 0x00	; 0
    3612:	01 c0       	rjmp	.+2      	; 0x3616 <u8g_pb8v1_set_pixel+0x1a>
    3614:	88 0f       	add	r24, r24
    3616:	4a 95       	dec	r20
    3618:	ea f7       	brpl	.-6      	; 0x3614 <u8g_pb8v1_set_pixel+0x18>
    361a:	e6 0f       	add	r30, r22
    361c:	f1 1d       	adc	r31, r1
    361e:	30 81       	ld	r19, Z
    3620:	22 23       	and	r18, r18
    3622:	11 f0       	breq	.+4      	; 0x3628 <u8g_pb8v1_set_pixel+0x2c>
    3624:	83 2b       	or	r24, r19
    3626:	02 c0       	rjmp	.+4      	; 0x362c <u8g_pb8v1_set_pixel+0x30>
    3628:	80 95       	com	r24
    362a:	83 23       	and	r24, r19
    362c:	80 83       	st	Z, r24
    362e:	08 95       	ret

00003630 <u8g_pb8v1_SetPixel>:
    3630:	fb 01       	movw	r30, r22
    3632:	41 81       	ldd	r20, Z+1	; 0x01
    3634:	dc 01       	movw	r26, r24
    3636:	12 96       	adiw	r26, 0x02	; 2
    3638:	2c 91       	ld	r18, X
    363a:	12 97       	sbiw	r26, 0x02	; 2
    363c:	42 17       	cp	r20, r18
    363e:	68 f0       	brcs	.+26     	; 0x365a <u8g_pb8v1_SetPixel+0x2a>
    3640:	13 96       	adiw	r26, 0x03	; 3
    3642:	2c 91       	ld	r18, X
    3644:	13 97       	sbiw	r26, 0x03	; 3
    3646:	24 17       	cp	r18, r20
    3648:	40 f0       	brcs	.+16     	; 0x365a <u8g_pb8v1_SetPixel+0x2a>
    364a:	60 81       	ld	r22, Z
    364c:	15 96       	adiw	r26, 0x05	; 5
    364e:	2c 91       	ld	r18, X
    3650:	62 17       	cp	r22, r18
    3652:	18 f4       	brcc	.+6      	; 0x365a <u8g_pb8v1_SetPixel+0x2a>
    3654:	24 81       	ldd	r18, Z+4	; 0x04
    3656:	0c 94 fe 1a 	jmp	0x35fc	; 0x35fc <u8g_pb8v1_set_pixel>
    365a:	08 95       	ret

0000365c <u8g_pb8v1_Set8PixelOpt2>:
    365c:	cf 92       	push	r12
    365e:	df 92       	push	r13
    3660:	ff 92       	push	r15
    3662:	0f 93       	push	r16
    3664:	1f 93       	push	r17
    3666:	cf 93       	push	r28
    3668:	df 93       	push	r29
    366a:	6c 01       	movw	r12, r24
    366c:	eb 01       	movw	r28, r22
    366e:	fa 80       	ldd	r15, Y+2	; 0x02
    3670:	9b 81       	ldd	r25, Y+3	; 0x03
    3672:	91 30       	cpi	r25, 0x01	; 1
    3674:	51 f0       	breq	.+20     	; 0x368a <u8g_pb8v1_Set8PixelOpt2+0x2e>
    3676:	30 f0       	brcs	.+12     	; 0x3684 <u8g_pb8v1_Set8PixelOpt2+0x28>
    3678:	92 30       	cpi	r25, 0x02	; 2
    367a:	49 f0       	breq	.+18     	; 0x368e <u8g_pb8v1_Set8PixelOpt2+0x32>
    367c:	93 30       	cpi	r25, 0x03	; 3
    367e:	51 f4       	brne	.+20     	; 0x3694 <u8g_pb8v1_Set8PixelOpt2+0x38>
    3680:	1f ef       	ldi	r17, 0xFF	; 255
    3682:	09 c0       	rjmp	.+18     	; 0x3696 <u8g_pb8v1_Set8PixelOpt2+0x3a>
    3684:	10 e0       	ldi	r17, 0x00	; 0
    3686:	01 e0       	ldi	r16, 0x01	; 1
    3688:	07 c0       	rjmp	.+14     	; 0x3698 <u8g_pb8v1_Set8PixelOpt2+0x3c>
    368a:	11 e0       	ldi	r17, 0x01	; 1
    368c:	04 c0       	rjmp	.+8      	; 0x3696 <u8g_pb8v1_Set8PixelOpt2+0x3a>
    368e:	10 e0       	ldi	r17, 0x00	; 0
    3690:	0f ef       	ldi	r16, 0xFF	; 255
    3692:	02 c0       	rjmp	.+4      	; 0x3698 <u8g_pb8v1_Set8PixelOpt2+0x3c>
    3694:	10 e0       	ldi	r17, 0x00	; 0
    3696:	00 e0       	ldi	r16, 0x00	; 0
    3698:	f7 fe       	sbrs	r15, 7
    369a:	04 c0       	rjmp	.+8      	; 0x36a4 <u8g_pb8v1_Set8PixelOpt2+0x48>
    369c:	be 01       	movw	r22, r28
    369e:	c6 01       	movw	r24, r12
    36a0:	0e 94 18 1b 	call	0x3630	; 0x3630 <u8g_pb8v1_SetPixel>
    36a4:	98 81       	ld	r25, Y
    36a6:	90 0f       	add	r25, r16
    36a8:	98 83       	st	Y, r25
    36aa:	99 81       	ldd	r25, Y+1	; 0x01
    36ac:	91 0f       	add	r25, r17
    36ae:	99 83       	std	Y+1, r25	; 0x01
    36b0:	ff 0c       	add	r15, r15
    36b2:	91 f7       	brne	.-28     	; 0x3698 <u8g_pb8v1_Set8PixelOpt2+0x3c>
    36b4:	df 91       	pop	r29
    36b6:	cf 91       	pop	r28
    36b8:	1f 91       	pop	r17
    36ba:	0f 91       	pop	r16
    36bc:	ff 90       	pop	r15
    36be:	df 90       	pop	r13
    36c0:	cf 90       	pop	r12
    36c2:	08 95       	ret

000036c4 <u8g_dev_pb8v1_base_fn>:
    36c4:	0f 93       	push	r16
    36c6:	1f 93       	push	r17
    36c8:	cf 93       	push	r28
    36ca:	df 93       	push	r29
    36cc:	89 01       	movw	r16, r18
    36ce:	fb 01       	movw	r30, r22
    36d0:	c2 81       	ldd	r28, Z+2	; 0x02
    36d2:	d3 81       	ldd	r29, Z+3	; 0x03
    36d4:	42 33       	cpi	r20, 0x32	; 50
    36d6:	f9 f0       	breq	.+62     	; 0x3716 <u8g_dev_pb8v1_base_fn+0x52>
    36d8:	68 f4       	brcc	.+26     	; 0x36f4 <u8g_dev_pb8v1_base_fn+0x30>
    36da:	45 31       	cpi	r20, 0x15	; 21
    36dc:	09 f1       	breq	.+66     	; 0x3720 <u8g_dev_pb8v1_base_fn+0x5c>
    36de:	47 31       	cpi	r20, 0x17	; 23
    36e0:	41 f1       	breq	.+80     	; 0x3732 <u8g_dev_pb8v1_base_fn+0x6e>
    36e2:	44 31       	cpi	r20, 0x14	; 20
    36e4:	81 f5       	brne	.+96     	; 0x3746 <u8g_dev_pb8v1_base_fn+0x82>
    36e6:	ce 01       	movw	r24, r28
    36e8:	0e 94 b0 1a 	call	0x3560	; 0x3560 <u8g_pb_Clear>
    36ec:	ce 01       	movw	r24, r28
    36ee:	0e 94 93 1a 	call	0x3526	; 0x3526 <u8g_page_First>
    36f2:	29 c0       	rjmp	.+82     	; 0x3746 <u8g_dev_pb8v1_base_fn+0x82>
    36f4:	46 34       	cpi	r20, 0x46	; 70
    36f6:	11 f1       	breq	.+68     	; 0x373c <u8g_dev_pb8v1_base_fn+0x78>
    36f8:	47 34       	cpi	r20, 0x47	; 71
    36fa:	11 f1       	breq	.+68     	; 0x3740 <u8g_dev_pb8v1_base_fn+0x7c>
    36fc:	4b 33       	cpi	r20, 0x3B	; 59
    36fe:	19 f5       	brne	.+70     	; 0x3746 <u8g_dev_pb8v1_base_fn+0x82>
    3700:	b9 01       	movw	r22, r18
    3702:	ce 01       	movw	r24, r28
    3704:	0e 94 e6 1a 	call	0x35cc	; 0x35cc <u8g_pb_Is8PixelVisible>
    3708:	88 23       	and	r24, r24
    370a:	e9 f0       	breq	.+58     	; 0x3746 <u8g_dev_pb8v1_base_fn+0x82>
    370c:	b8 01       	movw	r22, r16
    370e:	ce 01       	movw	r24, r28
    3710:	0e 94 2e 1b 	call	0x365c	; 0x365c <u8g_pb8v1_Set8PixelOpt2>
    3714:	18 c0       	rjmp	.+48     	; 0x3746 <u8g_dev_pb8v1_base_fn+0x82>
    3716:	b9 01       	movw	r22, r18
    3718:	ce 01       	movw	r24, r28
    371a:	0e 94 18 1b 	call	0x3630	; 0x3630 <u8g_pb8v1_SetPixel>
    371e:	13 c0       	rjmp	.+38     	; 0x3746 <u8g_dev_pb8v1_base_fn+0x82>
    3720:	ce 01       	movw	r24, r28
    3722:	0e 94 9a 1a 	call	0x3534	; 0x3534 <u8g_page_Next>
    3726:	88 23       	and	r24, r24
    3728:	79 f0       	breq	.+30     	; 0x3748 <u8g_dev_pb8v1_base_fn+0x84>
    372a:	ce 01       	movw	r24, r28
    372c:	0e 94 b0 1a 	call	0x3560	; 0x3560 <u8g_pb_Clear>
    3730:	0a c0       	rjmp	.+20     	; 0x3746 <u8g_dev_pb8v1_base_fn+0x82>
    3732:	b9 01       	movw	r22, r18
    3734:	ce 01       	movw	r24, r28
    3736:	0e 94 d6 1a 	call	0x35ac	; 0x35ac <u8g_pb_GetPageBox>
    373a:	05 c0       	rjmp	.+10     	; 0x3746 <u8g_dev_pb8v1_base_fn+0x82>
    373c:	8d 81       	ldd	r24, Y+5	; 0x05
    373e:	01 c0       	rjmp	.+2      	; 0x3742 <u8g_dev_pb8v1_base_fn+0x7e>
    3740:	89 81       	ldd	r24, Y+1	; 0x01
    3742:	f8 01       	movw	r30, r16
    3744:	80 83       	st	Z, r24
    3746:	81 e0       	ldi	r24, 0x01	; 1
    3748:	df 91       	pop	r29
    374a:	cf 91       	pop	r28
    374c:	1f 91       	pop	r17
    374e:	0f 91       	pop	r16
    3750:	08 95       	ret

00003752 <u8g_draw_hline>:
    3752:	cf 92       	push	r12
    3754:	df 92       	push	r13
    3756:	ef 92       	push	r14
    3758:	ff 92       	push	r15
    375a:	0f 93       	push	r16
    375c:	1f 93       	push	r17
    375e:	cf 93       	push	r28
    3760:	df 93       	push	r29
    3762:	7c 01       	movw	r14, r24
    3764:	d6 2f       	mov	r29, r22
    3766:	d4 2e       	mov	r13, r20
    3768:	c2 2f       	mov	r28, r18
    376a:	12 2f       	mov	r17, r18
    376c:	c6 2e       	mov	r12, r22
    376e:	c2 0e       	add	r12, r18
    3770:	6c 2d       	mov	r22, r12
    3772:	61 1b       	sub	r22, r17
    3774:	18 30       	cpi	r17, 0x08	; 8
    3776:	40 f0       	brcs	.+16     	; 0x3788 <u8g_draw_hline+0x36>
    3778:	0f ef       	ldi	r16, 0xFF	; 255
    377a:	20 e0       	ldi	r18, 0x00	; 0
    377c:	4d 2d       	mov	r20, r13
    377e:	c7 01       	movw	r24, r14
    3780:	0e 94 82 1a 	call	0x3504	; 0x3504 <u8g_Draw8Pixel>
    3784:	18 50       	subi	r17, 0x08	; 8
    3786:	f4 cf       	rjmp	.-24     	; 0x3770 <u8g_draw_hline+0x1e>
    3788:	6c 2f       	mov	r22, r28
    378a:	68 7f       	andi	r22, 0xF8	; 248
    378c:	6d 0f       	add	r22, r29
    378e:	2c 2f       	mov	r18, r28
    3790:	27 70       	andi	r18, 0x07	; 7
    3792:	79 f0       	breq	.+30     	; 0x37b2 <u8g_draw_hline+0x60>
    3794:	97 e0       	ldi	r25, 0x07	; 7
    3796:	29 27       	eor	r18, r25
    3798:	2f 5f       	subi	r18, 0xFF	; 255
    379a:	27 70       	andi	r18, 0x07	; 7
    379c:	0f ef       	ldi	r16, 0xFF	; 255
    379e:	10 e0       	ldi	r17, 0x00	; 0
    37a0:	01 c0       	rjmp	.+2      	; 0x37a4 <u8g_draw_hline+0x52>
    37a2:	00 0f       	add	r16, r16
    37a4:	2a 95       	dec	r18
    37a6:	ea f7       	brpl	.-6      	; 0x37a2 <u8g_draw_hline+0x50>
    37a8:	20 e0       	ldi	r18, 0x00	; 0
    37aa:	4d 2d       	mov	r20, r13
    37ac:	c7 01       	movw	r24, r14
    37ae:	0e 94 82 1a 	call	0x3504	; 0x3504 <u8g_Draw8Pixel>
    37b2:	df 91       	pop	r29
    37b4:	cf 91       	pop	r28
    37b6:	1f 91       	pop	r17
    37b8:	0f 91       	pop	r16
    37ba:	ff 90       	pop	r15
    37bc:	ef 90       	pop	r14
    37be:	df 90       	pop	r13
    37c0:	cf 90       	pop	r12
    37c2:	08 95       	ret

000037c4 <u8g_draw_vline>:
    37c4:	cf 92       	push	r12
    37c6:	df 92       	push	r13
    37c8:	ef 92       	push	r14
    37ca:	ff 92       	push	r15
    37cc:	0f 93       	push	r16
    37ce:	1f 93       	push	r17
    37d0:	cf 93       	push	r28
    37d2:	df 93       	push	r29
    37d4:	7c 01       	movw	r14, r24
    37d6:	d6 2e       	mov	r13, r22
    37d8:	d4 2f       	mov	r29, r20
    37da:	c2 2f       	mov	r28, r18
    37dc:	12 2f       	mov	r17, r18
    37de:	c4 2e       	mov	r12, r20
    37e0:	c2 0e       	add	r12, r18
    37e2:	4c 2d       	mov	r20, r12
    37e4:	41 1b       	sub	r20, r17
    37e6:	18 30       	cpi	r17, 0x08	; 8
    37e8:	40 f0       	brcs	.+16     	; 0x37fa <u8g_draw_vline+0x36>
    37ea:	0f ef       	ldi	r16, 0xFF	; 255
    37ec:	21 e0       	ldi	r18, 0x01	; 1
    37ee:	6d 2d       	mov	r22, r13
    37f0:	c7 01       	movw	r24, r14
    37f2:	0e 94 82 1a 	call	0x3504	; 0x3504 <u8g_Draw8Pixel>
    37f6:	18 50       	subi	r17, 0x08	; 8
    37f8:	f4 cf       	rjmp	.-24     	; 0x37e2 <u8g_draw_vline+0x1e>
    37fa:	4c 2f       	mov	r20, r28
    37fc:	48 7f       	andi	r20, 0xF8	; 248
    37fe:	4d 0f       	add	r20, r29
    3800:	2c 2f       	mov	r18, r28
    3802:	27 70       	andi	r18, 0x07	; 7
    3804:	79 f0       	breq	.+30     	; 0x3824 <u8g_draw_vline+0x60>
    3806:	97 e0       	ldi	r25, 0x07	; 7
    3808:	29 27       	eor	r18, r25
    380a:	2f 5f       	subi	r18, 0xFF	; 255
    380c:	27 70       	andi	r18, 0x07	; 7
    380e:	0f ef       	ldi	r16, 0xFF	; 255
    3810:	10 e0       	ldi	r17, 0x00	; 0
    3812:	01 c0       	rjmp	.+2      	; 0x3816 <u8g_draw_vline+0x52>
    3814:	00 0f       	add	r16, r16
    3816:	2a 95       	dec	r18
    3818:	ea f7       	brpl	.-6      	; 0x3814 <u8g_draw_vline+0x50>
    381a:	21 e0       	ldi	r18, 0x01	; 1
    381c:	6d 2d       	mov	r22, r13
    381e:	c7 01       	movw	r24, r14
    3820:	0e 94 82 1a 	call	0x3504	; 0x3504 <u8g_Draw8Pixel>
    3824:	df 91       	pop	r29
    3826:	cf 91       	pop	r28
    3828:	1f 91       	pop	r17
    382a:	0f 91       	pop	r16
    382c:	ff 90       	pop	r15
    382e:	ef 90       	pop	r14
    3830:	df 90       	pop	r13
    3832:	cf 90       	pop	r12
    3834:	08 95       	ret

00003836 <u8g_DrawFrame>:
    3836:	df 92       	push	r13
    3838:	ef 92       	push	r14
    383a:	ff 92       	push	r15
    383c:	0f 93       	push	r16
    383e:	1f 93       	push	r17
    3840:	cf 93       	push	r28
    3842:	df 93       	push	r29
    3844:	7c 01       	movw	r14, r24
    3846:	16 2f       	mov	r17, r22
    3848:	c4 2f       	mov	r28, r20
    384a:	d2 2e       	mov	r13, r18
    384c:	d0 2f       	mov	r29, r16
    384e:	0e 94 a1 14 	call	0x2942	; 0x2942 <u8g_IsBBXIntersection>
    3852:	88 23       	and	r24, r24
    3854:	19 f1       	breq	.+70     	; 0x389c <u8g_DrawFrame+0x66>
    3856:	2d 2d       	mov	r18, r13
    3858:	4c 2f       	mov	r20, r28
    385a:	61 2f       	mov	r22, r17
    385c:	c7 01       	movw	r24, r14
    385e:	0e 94 a9 1b 	call	0x3752	; 0x3752 <u8g_draw_hline>
    3862:	2d 2f       	mov	r18, r29
    3864:	4c 2f       	mov	r20, r28
    3866:	61 2f       	mov	r22, r17
    3868:	c7 01       	movw	r24, r14
    386a:	0e 94 e2 1b 	call	0x37c4	; 0x37c4 <u8g_draw_vline>
    386e:	6f ef       	ldi	r22, 0xFF	; 255
    3870:	6d 0d       	add	r22, r13
    3872:	61 0f       	add	r22, r17
    3874:	2d 2f       	mov	r18, r29
    3876:	4c 2f       	mov	r20, r28
    3878:	c7 01       	movw	r24, r14
    387a:	0e 94 e2 1b 	call	0x37c4	; 0x37c4 <u8g_draw_vline>
    387e:	4f ef       	ldi	r20, 0xFF	; 255
    3880:	4d 0f       	add	r20, r29
    3882:	4c 0f       	add	r20, r28
    3884:	2d 2d       	mov	r18, r13
    3886:	61 2f       	mov	r22, r17
    3888:	c7 01       	movw	r24, r14
    388a:	df 91       	pop	r29
    388c:	cf 91       	pop	r28
    388e:	1f 91       	pop	r17
    3890:	0f 91       	pop	r16
    3892:	ff 90       	pop	r15
    3894:	ef 90       	pop	r14
    3896:	df 90       	pop	r13
    3898:	0c 94 a9 1b 	jmp	0x3752	; 0x3752 <u8g_draw_hline>
    389c:	df 91       	pop	r29
    389e:	cf 91       	pop	r28
    38a0:	1f 91       	pop	r17
    38a2:	0f 91       	pop	r16
    38a4:	ff 90       	pop	r15
    38a6:	ef 90       	pop	r14
    38a8:	df 90       	pop	r13
    38aa:	08 95       	ret

000038ac <u8g_draw_box>:
    38ac:	ef 92       	push	r14
    38ae:	ff 92       	push	r15
    38b0:	0f 93       	push	r16
    38b2:	1f 93       	push	r17
    38b4:	cf 93       	push	r28
    38b6:	df 93       	push	r29
    38b8:	7c 01       	movw	r14, r24
    38ba:	d6 2f       	mov	r29, r22
    38bc:	12 2f       	mov	r17, r18
    38be:	c4 2f       	mov	r28, r20
    38c0:	04 0f       	add	r16, r20
    38c2:	21 2f       	mov	r18, r17
    38c4:	4c 2f       	mov	r20, r28
    38c6:	6d 2f       	mov	r22, r29
    38c8:	c7 01       	movw	r24, r14
    38ca:	0e 94 a9 1b 	call	0x3752	; 0x3752 <u8g_draw_hline>
    38ce:	cf 5f       	subi	r28, 0xFF	; 255
    38d0:	0c 13       	cpse	r16, r28
    38d2:	f7 cf       	rjmp	.-18     	; 0x38c2 <u8g_draw_box+0x16>
    38d4:	df 91       	pop	r29
    38d6:	cf 91       	pop	r28
    38d8:	1f 91       	pop	r17
    38da:	0f 91       	pop	r16
    38dc:	ff 90       	pop	r15
    38de:	ef 90       	pop	r14
    38e0:	08 95       	ret

000038e2 <u8g_DrawBox>:
    38e2:	df 92       	push	r13
    38e4:	ef 92       	push	r14
    38e6:	ff 92       	push	r15
    38e8:	0f 93       	push	r16
    38ea:	1f 93       	push	r17
    38ec:	cf 93       	push	r28
    38ee:	df 93       	push	r29
    38f0:	ec 01       	movw	r28, r24
    38f2:	16 2f       	mov	r17, r22
    38f4:	f4 2e       	mov	r15, r20
    38f6:	e2 2e       	mov	r14, r18
    38f8:	0e 94 a1 14 	call	0x2942	; 0x2942 <u8g_IsBBXIntersection>
    38fc:	88 23       	and	r24, r24
    38fe:	31 f0       	breq	.+12     	; 0x390c <u8g_DrawBox+0x2a>
    3900:	2e 2d       	mov	r18, r14
    3902:	4f 2d       	mov	r20, r15
    3904:	61 2f       	mov	r22, r17
    3906:	ce 01       	movw	r24, r28
    3908:	0e 94 56 1c 	call	0x38ac	; 0x38ac <u8g_draw_box>
    390c:	df 91       	pop	r29
    390e:	cf 91       	pop	r28
    3910:	1f 91       	pop	r17
    3912:	0f 91       	pop	r16
    3914:	ff 90       	pop	r15
    3916:	ef 90       	pop	r14
    3918:	df 90       	pop	r13
    391a:	08 95       	ret

0000391c <u8g_state_dummy_cb>:
    391c:	08 95       	ret

0000391e <_Z8init_ADCv>:
    391e:	80 e4       	ldi	r24, 0x40	; 64
    3920:	80 93 7c 00 	sts	0x007C, r24	; 0x80007c <__TEXT_REGION_LENGTH__+0x7e007c>
    3924:	87 e8       	ldi	r24, 0x87	; 135
    3926:	80 93 7a 00 	sts	0x007A, r24	; 0x80007a <__TEXT_REGION_LENGTH__+0x7e007a>
    392a:	08 95       	ret

0000392c <_Z5delayi>:
    392c:	18 16       	cp	r1, r24
    392e:	19 06       	cpc	r1, r25
    3930:	44 f4       	brge	.+16     	; 0x3942 <_Z5delayi+0x16>
    3932:	ef e9       	ldi	r30, 0x9F	; 159
    3934:	ff e0       	ldi	r31, 0x0F	; 15
    3936:	31 97       	sbiw	r30, 0x01	; 1
    3938:	f1 f7       	brne	.-4      	; 0x3936 <_Z5delayi+0xa>
    393a:	00 c0       	rjmp	.+0      	; 0x393c <_Z5delayi+0x10>
    393c:	00 00       	nop
    393e:	01 97       	sbiw	r24, 0x01	; 1
    3940:	f5 cf       	rjmp	.-22     	; 0x392c <_Z5delayi>
    3942:	08 95       	ret

00003944 <_Z13init_hardwarev>:
    3944:	0e 94 8f 1c 	call	0x391e	; 0x391e <_Z8init_ADCv>
    3948:	52 98       	cbi	0x0a, 2	; 10
    394a:	53 98       	cbi	0x0a, 3	; 10
    394c:	54 98       	cbi	0x0a, 4	; 10
    394e:	55 98       	cbi	0x0a, 5	; 10
    3950:	56 98       	cbi	0x0a, 6	; 10
    3952:	84 ec       	ldi	r24, 0xC4	; 196
    3954:	91 e0       	ldi	r25, 0x01	; 1
    3956:	0e 94 8d 1f 	call	0x3f1a	; 0x3f1a <_ZN4Time4initEv>
    395a:	40 e1       	ldi	r20, 0x10	; 16
    395c:	60 e0       	ldi	r22, 0x00	; 0
    395e:	71 e0       	ldi	r23, 0x01	; 1
    3960:	8e ec       	ldi	r24, 0xCE	; 206
    3962:	91 e0       	ldi	r25, 0x01	; 1
    3964:	0e 94 49 1a 	call	0x3492	; 0x3492 <u8g_InitI2C>
    3968:	78 94       	sei
    396a:	08 95       	ret

0000396c <_Z10analogReadi>:
    396c:	90 91 7c 00 	lds	r25, 0x007C	; 0x80007c <__TEXT_REGION_LENGTH__+0x7e007c>
    3970:	98 7f       	andi	r25, 0xF8	; 248
    3972:	89 2b       	or	r24, r25
    3974:	80 93 7c 00 	sts	0x007C, r24	; 0x80007c <__TEXT_REGION_LENGTH__+0x7e007c>
    3978:	80 91 7a 00 	lds	r24, 0x007A	; 0x80007a <__TEXT_REGION_LENGTH__+0x7e007a>
    397c:	80 64       	ori	r24, 0x40	; 64
    397e:	80 93 7a 00 	sts	0x007A, r24	; 0x80007a <__TEXT_REGION_LENGTH__+0x7e007a>
    3982:	80 91 7a 00 	lds	r24, 0x007A	; 0x80007a <__TEXT_REGION_LENGTH__+0x7e007a>
    3986:	86 fd       	sbrc	r24, 6
    3988:	fc cf       	rjmp	.-8      	; 0x3982 <_Z10analogReadi+0x16>
    398a:	80 91 78 00 	lds	r24, 0x0078	; 0x800078 <__TEXT_REGION_LENGTH__+0x7e0078>
    398e:	90 91 79 00 	lds	r25, 0x0079	; 0x800079 <__TEXT_REGION_LENGTH__+0x7e0079>
    3992:	08 95       	ret

00003994 <_Z9switchPinhb>:
    3994:	4a b1       	in	r20, 0x0a	; 10
    3996:	21 e0       	ldi	r18, 0x01	; 1
    3998:	30 e0       	ldi	r19, 0x00	; 0
    399a:	66 23       	and	r22, r22
    399c:	49 f0       	breq	.+18     	; 0x39b0 <_Z9switchPinhb+0x1c>
    399e:	b9 01       	movw	r22, r18
    39a0:	02 c0       	rjmp	.+4      	; 0x39a6 <_Z9switchPinhb+0x12>
    39a2:	66 0f       	add	r22, r22
    39a4:	77 1f       	adc	r23, r23
    39a6:	8a 95       	dec	r24
    39a8:	e2 f7       	brpl	.-8      	; 0x39a2 <_Z9switchPinhb+0xe>
    39aa:	cb 01       	movw	r24, r22
    39ac:	84 2b       	or	r24, r20
    39ae:	09 c0       	rjmp	.+18     	; 0x39c2 <_Z9switchPinhb+0x2e>
    39b0:	b9 01       	movw	r22, r18
    39b2:	02 c0       	rjmp	.+4      	; 0x39b8 <_Z9switchPinhb+0x24>
    39b4:	66 0f       	add	r22, r22
    39b6:	77 1f       	adc	r23, r23
    39b8:	8a 95       	dec	r24
    39ba:	e2 f7       	brpl	.-8      	; 0x39b4 <_Z9switchPinhb+0x20>
    39bc:	cb 01       	movw	r24, r22
    39be:	80 95       	com	r24
    39c0:	84 23       	and	r24, r20
    39c2:	8a b9       	out	0x0a, r24	; 10
    39c4:	08 95       	ret

000039c6 <_Z15findBestChannelv>:
    39c6:	2f 92       	push	r2
    39c8:	3f 92       	push	r3
    39ca:	4f 92       	push	r4
    39cc:	5f 92       	push	r5
    39ce:	6f 92       	push	r6
    39d0:	7f 92       	push	r7
    39d2:	8f 92       	push	r8
    39d4:	9f 92       	push	r9
    39d6:	af 92       	push	r10
    39d8:	bf 92       	push	r11
    39da:	cf 92       	push	r12
    39dc:	df 92       	push	r13
    39de:	ef 92       	push	r14
    39e0:	ff 92       	push	r15
    39e2:	0f 93       	push	r16
    39e4:	1f 93       	push	r17
    39e6:	cf 93       	push	r28
    39e8:	df 93       	push	r29
    39ea:	cd b7       	in	r28, 0x3d	; 61
    39ec:	de b7       	in	r29, 0x3e	; 62
    39ee:	63 97       	sbiw	r28, 0x13	; 19
    39f0:	0f b6       	in	r0, 0x3f	; 63
    39f2:	f8 94       	cli
    39f4:	de bf       	out	0x3e, r29	; 62
    39f6:	0f be       	out	0x3f, r0	; 63
    39f8:	cd bf       	out	0x3d, r28	; 61
    39fa:	68 e2       	ldi	r22, 0x28	; 40
    39fc:	75 e1       	ldi	r23, 0x15	; 21
    39fe:	8e ec       	ldi	r24, 0xCE	; 206
    3a00:	91 e0       	ldi	r25, 0x01	; 1
    3a02:	0e 94 26 19 	call	0x324c	; 0x324c <u8g_SetFont>
    3a06:	8e e0       	ldi	r24, 0x0E	; 14
    3a08:	e8 2e       	mov	r14, r24
    3a0a:	81 e0       	ldi	r24, 0x01	; 1
    3a0c:	f8 2e       	mov	r15, r24
    3a0e:	ce 01       	movw	r24, r28
    3a10:	01 96       	adiw	r24, 0x01	; 1
    3a12:	5c 01       	movw	r10, r24
    3a14:	10 e0       	ldi	r17, 0x00	; 0
    3a16:	c1 2c       	mov	r12, r1
    3a18:	d1 2c       	mov	r13, r1
    3a1a:	41 2c       	mov	r4, r1
    3a1c:	98 e2       	ldi	r25, 0x28	; 40
    3a1e:	39 2e       	mov	r3, r25
    3a20:	26 e9       	ldi	r18, 0x96	; 150
    3a22:	82 2e       	mov	r8, r18
    3a24:	91 2c       	mov	r9, r1
    3a26:	30 e4       	ldi	r19, 0x40	; 64
    3a28:	23 2e       	mov	r2, r19
    3a2a:	37 01       	movw	r6, r14
    3a2c:	f7 01       	movw	r30, r14
    3a2e:	60 81       	ld	r22, Z
    3a30:	61 70       	andi	r22, 0x01	; 1
    3a32:	82 e0       	ldi	r24, 0x02	; 2
    3a34:	0e 94 ca 1c 	call	0x3994	; 0x3994 <_Z9switchPinhb>
    3a38:	f7 01       	movw	r30, r14
    3a3a:	60 81       	ld	r22, Z
    3a3c:	66 95       	lsr	r22
    3a3e:	61 70       	andi	r22, 0x01	; 1
    3a40:	83 e0       	ldi	r24, 0x03	; 3
    3a42:	0e 94 ca 1c 	call	0x3994	; 0x3994 <_Z9switchPinhb>
    3a46:	f7 01       	movw	r30, r14
    3a48:	61 91       	ld	r22, Z+
    3a4a:	7f 01       	movw	r14, r30
    3a4c:	62 fb       	bst	r22, 2
    3a4e:	66 27       	eor	r22, r22
    3a50:	60 f9       	bld	r22, 0
    3a52:	84 e0       	ldi	r24, 0x04	; 4
    3a54:	0e 94 ca 1c 	call	0x3994	; 0x3994 <_Z9switchPinhb>
    3a58:	f3 01       	movw	r30, r6
    3a5a:	60 81       	ld	r22, Z
    3a5c:	63 fb       	bst	r22, 3
    3a5e:	66 27       	eor	r22, r22
    3a60:	60 f9       	bld	r22, 0
    3a62:	85 e0       	ldi	r24, 0x05	; 5
    3a64:	0e 94 ca 1c 	call	0x3994	; 0x3994 <_Z9switchPinhb>
    3a68:	82 e3       	ldi	r24, 0x32	; 50
    3a6a:	90 e0       	ldi	r25, 0x00	; 0
    3a6c:	0e 94 96 1c 	call	0x392c	; 0x392c <_Z5delayi>
    3a70:	80 e0       	ldi	r24, 0x00	; 0
    3a72:	90 e0       	ldi	r25, 0x00	; 0
    3a74:	0e 94 b6 1c 	call	0x396c	; 0x396c <_Z10analogReadi>
    3a78:	f5 01       	movw	r30, r10
    3a7a:	81 93       	st	Z+, r24
    3a7c:	91 93       	st	Z+, r25
    3a7e:	5f 01       	movw	r10, r30
    3a80:	8c 15       	cp	r24, r12
    3a82:	9d 05       	cpc	r25, r13
    3a84:	10 f0       	brcs	.+4      	; 0x3a8a <_Z15findBestChannelv+0xc4>
    3a86:	6c 01       	movw	r12, r24
    3a88:	41 2e       	mov	r4, r17
    3a8a:	8e ec       	ldi	r24, 0xCE	; 206
    3a8c:	91 e0       	ldi	r25, 0x01	; 1
    3a8e:	0e 94 66 1a 	call	0x34cc	; 0x34cc <u8g_FirstPage>
    3a92:	25 e6       	ldi	r18, 0x65	; 101
    3a94:	36 e2       	ldi	r19, 0x26	; 38
    3a96:	40 e1       	ldi	r20, 0x10	; 16
    3a98:	68 e0       	ldi	r22, 0x08	; 8
    3a9a:	8e ec       	ldi	r24, 0xCE	; 206
    3a9c:	91 e0       	ldi	r25, 0x01	; 1
    3a9e:	0e 94 ad 18 	call	0x315a	; 0x315a <u8g_DrawStrP>
    3aa2:	ce 01       	movw	r24, r28
    3aa4:	01 96       	adiw	r24, 0x01	; 1
    3aa6:	3c 01       	movw	r6, r24
    3aa8:	30 e0       	ldi	r19, 0x00	; 0
    3aaa:	51 2c       	mov	r5, r1
    3aac:	51 16       	cp	r5, r17
    3aae:	e1 f0       	breq	.+56     	; 0x3ae8 <_Z15findBestChannelv+0x122>
    3ab0:	f3 01       	movw	r30, r6
    3ab2:	41 91       	ld	r20, Z+
    3ab4:	51 91       	ld	r21, Z+
    3ab6:	3f 01       	movw	r6, r30
    3ab8:	48 57       	subi	r20, 0x78	; 120
    3aba:	51 09       	sbc	r21, r1
    3abc:	34 9e       	mul	r3, r20
    3abe:	c0 01       	movw	r24, r0
    3ac0:	35 9e       	mul	r3, r21
    3ac2:	90 0d       	add	r25, r0
    3ac4:	11 24       	eor	r1, r1
    3ac6:	b4 01       	movw	r22, r8
    3ac8:	0e 94 f4 1f 	call	0x3fe8	; 0x3fe8 <__udivmodhi4>
    3acc:	42 2d       	mov	r20, r2
    3ace:	46 1b       	sub	r20, r22
    3ad0:	06 2f       	mov	r16, r22
    3ad2:	2a e0       	ldi	r18, 0x0A	; 10
    3ad4:	63 2f       	mov	r22, r19
    3ad6:	8e ec       	ldi	r24, 0xCE	; 206
    3ad8:	91 e0       	ldi	r25, 0x01	; 1
    3ada:	3b 8b       	std	Y+19, r19	; 0x13
    3adc:	0e 94 71 1c 	call	0x38e2	; 0x38e2 <u8g_DrawBox>
    3ae0:	53 94       	inc	r5
    3ae2:	3b 89       	ldd	r19, Y+19	; 0x13
    3ae4:	30 5f       	subi	r19, 0xF0	; 240
    3ae6:	e2 cf       	rjmp	.-60     	; 0x3aac <_Z15findBestChannelv+0xe6>
    3ae8:	8e ec       	ldi	r24, 0xCE	; 206
    3aea:	91 e0       	ldi	r25, 0x01	; 1
    3aec:	0e 94 6b 1a 	call	0x34d6	; 0x34d6 <u8g_NextPage>
    3af0:	81 11       	cpse	r24, r1
    3af2:	cf cf       	rjmp	.-98     	; 0x3a92 <_Z15findBestChannelv+0xcc>
    3af4:	11 e0       	ldi	r17, 0x01	; 1
    3af6:	15 0d       	add	r17, r5
    3af8:	19 30       	cpi	r17, 0x09	; 9
    3afa:	09 f0       	breq	.+2      	; 0x3afe <_Z15findBestChannelv+0x138>
    3afc:	96 cf       	rjmp	.-212    	; 0x3a2a <_Z15findBestChannelv+0x64>
    3afe:	84 e6       	ldi	r24, 0x64	; 100
    3b00:	90 e0       	ldi	r25, 0x00	; 0
    3b02:	0e 94 96 1c 	call	0x392c	; 0x392c <_Z5delayi>
    3b06:	84 2d       	mov	r24, r4
    3b08:	63 96       	adiw	r28, 0x13	; 19
    3b0a:	0f b6       	in	r0, 0x3f	; 63
    3b0c:	f8 94       	cli
    3b0e:	de bf       	out	0x3e, r29	; 62
    3b10:	0f be       	out	0x3f, r0	; 63
    3b12:	cd bf       	out	0x3d, r28	; 61
    3b14:	df 91       	pop	r29
    3b16:	cf 91       	pop	r28
    3b18:	1f 91       	pop	r17
    3b1a:	0f 91       	pop	r16
    3b1c:	ff 90       	pop	r15
    3b1e:	ef 90       	pop	r14
    3b20:	df 90       	pop	r13
    3b22:	cf 90       	pop	r12
    3b24:	bf 90       	pop	r11
    3b26:	af 90       	pop	r10
    3b28:	9f 90       	pop	r9
    3b2a:	8f 90       	pop	r8
    3b2c:	7f 90       	pop	r7
    3b2e:	6f 90       	pop	r6
    3b30:	5f 90       	pop	r5
    3b32:	4f 90       	pop	r4
    3b34:	3f 90       	pop	r3
    3b36:	2f 90       	pop	r2
    3b38:	08 95       	ret

00003b3a <_Z13selectChannelhb>:
    3b3a:	ef 92       	push	r14
    3b3c:	ff 92       	push	r15
    3b3e:	1f 93       	push	r17
    3b40:	cf 93       	push	r28
    3b42:	df 93       	push	r29
    3b44:	1f 92       	push	r1
    3b46:	cd b7       	in	r28, 0x3d	; 61
    3b48:	de b7       	in	r29, 0x3e	; 62
    3b4a:	48 2f       	mov	r20, r24
    3b4c:	16 2f       	mov	r17, r22
    3b4e:	90 e0       	ldi	r25, 0x00	; 0
    3b50:	9c 01       	movw	r18, r24
    3b52:	22 5f       	subi	r18, 0xF2	; 242
    3b54:	3e 4f       	sbci	r19, 0xFE	; 254
    3b56:	79 01       	movw	r14, r18
    3b58:	f9 01       	movw	r30, r18
    3b5a:	80 81       	ld	r24, Z
    3b5c:	68 2f       	mov	r22, r24
    3b5e:	61 70       	andi	r22, 0x01	; 1
    3b60:	82 e0       	ldi	r24, 0x02	; 2
    3b62:	49 83       	std	Y+1, r20	; 0x01
    3b64:	0e 94 ca 1c 	call	0x3994	; 0x3994 <_Z9switchPinhb>
    3b68:	f7 01       	movw	r30, r14
    3b6a:	80 81       	ld	r24, Z
    3b6c:	81 fb       	bst	r24, 1
    3b6e:	66 27       	eor	r22, r22
    3b70:	60 f9       	bld	r22, 0
    3b72:	83 e0       	ldi	r24, 0x03	; 3
    3b74:	0e 94 ca 1c 	call	0x3994	; 0x3994 <_Z9switchPinhb>
    3b78:	f7 01       	movw	r30, r14
    3b7a:	80 81       	ld	r24, Z
    3b7c:	82 fb       	bst	r24, 2
    3b7e:	66 27       	eor	r22, r22
    3b80:	60 f9       	bld	r22, 0
    3b82:	84 e0       	ldi	r24, 0x04	; 4
    3b84:	0e 94 ca 1c 	call	0x3994	; 0x3994 <_Z9switchPinhb>
    3b88:	f7 01       	movw	r30, r14
    3b8a:	80 81       	ld	r24, Z
    3b8c:	83 fb       	bst	r24, 3
    3b8e:	66 27       	eor	r22, r22
    3b90:	60 f9       	bld	r22, 0
    3b92:	85 e0       	ldi	r24, 0x05	; 5
    3b94:	0e 94 ca 1c 	call	0x3994	; 0x3994 <_Z9switchPinhb>
    3b98:	49 81       	ldd	r20, Y+1	; 0x01
    3b9a:	40 93 9d 01 	sts	0x019D, r20	; 0x80019d <currentChannel>
    3b9e:	11 23       	and	r17, r17
    3ba0:	61 f0       	breq	.+24     	; 0x3bba <_Z13selectChannelhb+0x80>
    3ba2:	6f ef       	ldi	r22, 0xFF	; 255
    3ba4:	73 e0       	ldi	r23, 0x03	; 3
    3ba6:	8d ec       	ldi	r24, 0xCD	; 205
    3ba8:	91 e0       	ldi	r25, 0x01	; 1
    3baa:	0f 90       	pop	r0
    3bac:	df 91       	pop	r29
    3bae:	cf 91       	pop	r28
    3bb0:	1f 91       	pop	r17
    3bb2:	ff 90       	pop	r15
    3bb4:	ef 90       	pop	r14
    3bb6:	0c 94 14 14 	jmp	0x2828	; 0x2828 <_ZN6EEPROM5writeEjh>
    3bba:	0f 90       	pop	r0
    3bbc:	df 91       	pop	r29
    3bbe:	cf 91       	pop	r28
    3bc0:	1f 91       	pop	r17
    3bc2:	ff 90       	pop	r15
    3bc4:	ef 90       	pop	r14
    3bc6:	08 95       	ret

00003bc8 <_Z22displaySelectedChannelh>:
    3bc8:	bf 92       	push	r11
    3bca:	cf 92       	push	r12
    3bcc:	df 92       	push	r13
    3bce:	ef 92       	push	r14
    3bd0:	ff 92       	push	r15
    3bd2:	0f 93       	push	r16
    3bd4:	1f 93       	push	r17
    3bd6:	cf 93       	push	r28
    3bd8:	df 93       	push	r29
    3bda:	c8 2f       	mov	r28, r24
    3bdc:	8e ec       	ldi	r24, 0xCE	; 206
    3bde:	91 e0       	ldi	r25, 0x01	; 1
    3be0:	0e 94 66 1a 	call	0x34cc	; 0x34cc <u8g_FirstPage>
    3be4:	d0 e0       	ldi	r29, 0x00	; 0
    3be6:	cc 0f       	add	r28, r28
    3be8:	dd 1f       	adc	r29, r29
    3bea:	ce 58       	subi	r28, 0x8E	; 142
    3bec:	d9 4d       	sbci	r29, 0xD9	; 217
    3bee:	94 e6       	ldi	r25, 0x64	; 100
    3bf0:	b9 2e       	mov	r11, r25
    3bf2:	26 e9       	ldi	r18, 0x96	; 150
    3bf4:	e2 2e       	mov	r14, r18
    3bf6:	f1 2c       	mov	r15, r1
    3bf8:	3b e5       	ldi	r19, 0x5B	; 91
    3bfa:	c3 2e       	mov	r12, r19
    3bfc:	36 e2       	ldi	r19, 0x26	; 38
    3bfe:	d3 2e       	mov	r13, r19
    3c00:	1a e7       	ldi	r17, 0x7A	; 122
    3c02:	6a ea       	ldi	r22, 0xAA	; 170
    3c04:	70 e0       	ldi	r23, 0x00	; 0
    3c06:	8e ec       	ldi	r24, 0xCE	; 206
    3c08:	91 e0       	ldi	r25, 0x01	; 1
    3c0a:	0e 94 26 19 	call	0x324c	; 0x324c <u8g_SetFont>
    3c0e:	fe 01       	movw	r30, r28
    3c10:	65 91       	lpm	r22, Z+
    3c12:	74 91       	lpm	r23, Z
    3c14:	86 ea       	ldi	r24, 0xA6	; 166
    3c16:	91 e0       	ldi	r25, 0x01	; 1
    3c18:	0e 94 0e 20 	call	0x401c	; 0x401c <strcpy_P>
    3c1c:	26 ea       	ldi	r18, 0xA6	; 166
    3c1e:	31 e0       	ldi	r19, 0x01	; 1
    3c20:	48 e2       	ldi	r20, 0x28	; 40
    3c22:	66 e0       	ldi	r22, 0x06	; 6
    3c24:	8e ec       	ldi	r24, 0xCE	; 206
    3c26:	91 e0       	ldi	r25, 0x01	; 1
    3c28:	0e 94 76 18 	call	0x30ec	; 0x30ec <u8g_DrawStr>
    3c2c:	0d e2       	ldi	r16, 0x2D	; 45
    3c2e:	2f e7       	ldi	r18, 0x7F	; 127
    3c30:	40 e0       	ldi	r20, 0x00	; 0
    3c32:	60 e0       	ldi	r22, 0x00	; 0
    3c34:	8e ec       	ldi	r24, 0xCE	; 206
    3c36:	91 e0       	ldi	r25, 0x01	; 1
    3c38:	0e 94 1b 1c 	call	0x3836	; 0x3836 <u8g_DrawFrame>
    3c3c:	6e ed       	ldi	r22, 0xDE	; 222
    3c3e:	7d e0       	ldi	r23, 0x0D	; 13
    3c40:	8e ec       	ldi	r24, 0xCE	; 206
    3c42:	91 e0       	ldi	r25, 0x01	; 1
    3c44:	0e 94 26 19 	call	0x324c	; 0x324c <u8g_SetFont>
    3c48:	20 91 9b 01 	lds	r18, 0x019B	; 0x80019b <currentChannelRssi>
    3c4c:	30 91 9c 01 	lds	r19, 0x019C	; 0x80019c <currentChannelRssi+0x1>
    3c50:	28 57       	subi	r18, 0x78	; 120
    3c52:	31 09       	sbc	r19, r1
    3c54:	b2 9e       	mul	r11, r18
    3c56:	c0 01       	movw	r24, r0
    3c58:	b3 9e       	mul	r11, r19
    3c5a:	90 0d       	add	r25, r0
    3c5c:	11 24       	eor	r1, r1
    3c5e:	b7 01       	movw	r22, r14
    3c60:	0e 94 f4 1f 	call	0x3fe8	; 0x3fe8 <__udivmodhi4>
    3c64:	7f 93       	push	r23
    3c66:	6f 93       	push	r22
    3c68:	df 92       	push	r13
    3c6a:	cf 92       	push	r12
    3c6c:	86 ea       	ldi	r24, 0xA6	; 166
    3c6e:	91 e0       	ldi	r25, 0x01	; 1
    3c70:	9f 93       	push	r25
    3c72:	8f 93       	push	r24
    3c74:	0e 94 15 20 	call	0x402a	; 0x402a <sprintf_P>
    3c78:	26 ea       	ldi	r18, 0xA6	; 166
    3c7a:	31 e0       	ldi	r19, 0x01	; 1
    3c7c:	49 e3       	ldi	r20, 0x39	; 57
    3c7e:	63 e0       	ldi	r22, 0x03	; 3
    3c80:	8e ec       	ldi	r24, 0xCE	; 206
    3c82:	91 e0       	ldi	r25, 0x01	; 1
    3c84:	0e 94 76 18 	call	0x30ec	; 0x30ec <u8g_DrawStr>
    3c88:	20 91 9b 01 	lds	r18, 0x019B	; 0x80019b <currentChannelRssi>
    3c8c:	30 91 9c 01 	lds	r19, 0x019C	; 0x80019c <currentChannelRssi+0x1>
    3c90:	28 57       	subi	r18, 0x78	; 120
    3c92:	31 09       	sbc	r19, r1
    3c94:	12 9f       	mul	r17, r18
    3c96:	c0 01       	movw	r24, r0
    3c98:	13 9f       	mul	r17, r19
    3c9a:	90 0d       	add	r25, r0
    3c9c:	11 24       	eor	r1, r1
    3c9e:	b7 01       	movw	r22, r14
    3ca0:	0e 94 f4 1f 	call	0x3fe8	; 0x3fe8 <__udivmodhi4>
    3ca4:	26 2f       	mov	r18, r22
    3ca6:	03 e0       	ldi	r16, 0x03	; 3
    3ca8:	4b e3       	ldi	r20, 0x3B	; 59
    3caa:	63 e0       	ldi	r22, 0x03	; 3
    3cac:	8e ec       	ldi	r24, 0xCE	; 206
    3cae:	91 e0       	ldi	r25, 0x01	; 1
    3cb0:	0e 94 71 1c 	call	0x38e2	; 0x38e2 <u8g_DrawBox>
    3cb4:	00 e1       	ldi	r16, 0x10	; 16
    3cb6:	2f e7       	ldi	r18, 0x7F	; 127
    3cb8:	40 e3       	ldi	r20, 0x30	; 48
    3cba:	60 e0       	ldi	r22, 0x00	; 0
    3cbc:	8e ec       	ldi	r24, 0xCE	; 206
    3cbe:	91 e0       	ldi	r25, 0x01	; 1
    3cc0:	0e 94 1b 1c 	call	0x3836	; 0x3836 <u8g_DrawFrame>
    3cc4:	8e ec       	ldi	r24, 0xCE	; 206
    3cc6:	91 e0       	ldi	r25, 0x01	; 1
    3cc8:	0e 94 6b 1a 	call	0x34d6	; 0x34d6 <u8g_NextPage>
    3ccc:	0f 90       	pop	r0
    3cce:	0f 90       	pop	r0
    3cd0:	0f 90       	pop	r0
    3cd2:	0f 90       	pop	r0
    3cd4:	0f 90       	pop	r0
    3cd6:	0f 90       	pop	r0
    3cd8:	81 11       	cpse	r24, r1
    3cda:	93 cf       	rjmp	.-218    	; 0x3c02 <_Z22displaySelectedChannelh+0x3a>
    3cdc:	df 91       	pop	r29
    3cde:	cf 91       	pop	r28
    3ce0:	1f 91       	pop	r17
    3ce2:	0f 91       	pop	r16
    3ce4:	ff 90       	pop	r15
    3ce6:	ef 90       	pop	r14
    3ce8:	df 90       	pop	r13
    3cea:	cf 90       	pop	r12
    3cec:	bf 90       	pop	r11
    3cee:	08 95       	ret

00003cf0 <_Z18checkButtonPressedv>:
    3cf0:	0f 93       	push	r16
    3cf2:	1f 93       	push	r17
    3cf4:	4e 9b       	sbis	0x09, 6	; 9
    3cf6:	26 c0       	rjmp	.+76     	; 0x3d44 <_Z18checkButtonPressedv+0x54>
    3cf8:	84 ec       	ldi	r24, 0xC4	; 196
    3cfa:	91 e0       	ldi	r25, 0x01	; 1
    3cfc:	0e 94 a1 1f 	call	0x3f42	; 0x3f42 <_ZN4Time6millisEv>
    3d00:	60 93 a2 01 	sts	0x01A2, r22	; 0x8001a2 <control_button_pressed_time>
    3d04:	70 93 a3 01 	sts	0x01A3, r23	; 0x8001a3 <control_button_pressed_time+0x1>
    3d08:	80 93 a4 01 	sts	0x01A4, r24	; 0x8001a4 <control_button_pressed_time+0x2>
    3d0c:	90 93 a5 01 	sts	0x01A5, r25	; 0x8001a5 <control_button_pressed_time+0x3>
    3d10:	4e 9b       	sbis	0x09, 6	; 9
    3d12:	21 c0       	rjmp	.+66     	; 0x3d56 <_Z18checkButtonPressedv+0x66>
    3d14:	84 ec       	ldi	r24, 0xC4	; 196
    3d16:	91 e0       	ldi	r25, 0x01	; 1
    3d18:	0e 94 a1 1f 	call	0x3f42	; 0x3f42 <_ZN4Time6millisEv>
    3d1c:	00 91 a2 01 	lds	r16, 0x01A2	; 0x8001a2 <control_button_pressed_time>
    3d20:	10 91 a3 01 	lds	r17, 0x01A3	; 0x8001a3 <control_button_pressed_time+0x1>
    3d24:	20 91 a4 01 	lds	r18, 0x01A4	; 0x8001a4 <control_button_pressed_time+0x2>
    3d28:	30 91 a5 01 	lds	r19, 0x01A5	; 0x8001a5 <control_button_pressed_time+0x3>
    3d2c:	dc 01       	movw	r26, r24
    3d2e:	cb 01       	movw	r24, r22
    3d30:	80 1b       	sub	r24, r16
    3d32:	91 0b       	sbc	r25, r17
    3d34:	a2 0b       	sbc	r26, r18
    3d36:	b3 0b       	sbc	r27, r19
    3d38:	88 3e       	cpi	r24, 0xE8	; 232
    3d3a:	93 40       	sbci	r25, 0x03	; 3
    3d3c:	a1 05       	cpc	r26, r1
    3d3e:	b1 05       	cpc	r27, r1
    3d40:	38 f3       	brcs	.-50     	; 0x3d10 <_Z18checkButtonPressedv+0x20>
    3d42:	09 c0       	rjmp	.+18     	; 0x3d56 <_Z18checkButtonPressedv+0x66>
    3d44:	10 92 a2 01 	sts	0x01A2, r1	; 0x8001a2 <control_button_pressed_time>
    3d48:	10 92 a3 01 	sts	0x01A3, r1	; 0x8001a3 <control_button_pressed_time+0x1>
    3d4c:	10 92 a4 01 	sts	0x01A4, r1	; 0x8001a4 <control_button_pressed_time+0x2>
    3d50:	10 92 a5 01 	sts	0x01A5, r1	; 0x8001a5 <control_button_pressed_time+0x3>
    3d54:	49 c0       	rjmp	.+146    	; 0x3de8 <_Z18checkButtonPressedv+0xf8>
    3d56:	84 ec       	ldi	r24, 0xC4	; 196
    3d58:	91 e0       	ldi	r25, 0x01	; 1
    3d5a:	0e 94 a1 1f 	call	0x3f42	; 0x3f42 <_ZN4Time6millisEv>
    3d5e:	00 91 a2 01 	lds	r16, 0x01A2	; 0x8001a2 <control_button_pressed_time>
    3d62:	10 91 a3 01 	lds	r17, 0x01A3	; 0x8001a3 <control_button_pressed_time+0x1>
    3d66:	20 91 a4 01 	lds	r18, 0x01A4	; 0x8001a4 <control_button_pressed_time+0x2>
    3d6a:	30 91 a5 01 	lds	r19, 0x01A5	; 0x8001a5 <control_button_pressed_time+0x3>
    3d6e:	dc 01       	movw	r26, r24
    3d70:	cb 01       	movw	r24, r22
    3d72:	80 1b       	sub	r24, r16
    3d74:	91 0b       	sbc	r25, r17
    3d76:	a2 0b       	sbc	r26, r18
    3d78:	b3 0b       	sbc	r27, r19
    3d7a:	80 93 9e 01 	sts	0x019E, r24	; 0x80019e <control_button_up_time>
    3d7e:	90 93 9f 01 	sts	0x019F, r25	; 0x80019f <control_button_up_time+0x1>
    3d82:	a0 93 a0 01 	sts	0x01A0, r26	; 0x8001a0 <control_button_up_time+0x2>
    3d86:	b0 93 a1 01 	sts	0x01A1, r27	; 0x8001a1 <control_button_up_time+0x3>
    3d8a:	80 91 9e 01 	lds	r24, 0x019E	; 0x80019e <control_button_up_time>
    3d8e:	90 91 9f 01 	lds	r25, 0x019F	; 0x80019f <control_button_up_time+0x1>
    3d92:	a0 91 a0 01 	lds	r26, 0x01A0	; 0x8001a0 <control_button_up_time+0x2>
    3d96:	b0 91 a1 01 	lds	r27, 0x01A1	; 0x8001a1 <control_button_up_time+0x3>
    3d9a:	88 3c       	cpi	r24, 0xC8	; 200
    3d9c:	91 05       	cpc	r25, r1
    3d9e:	a1 05       	cpc	r26, r1
    3da0:	b1 05       	cpc	r27, r1
    3da2:	70 f4       	brcc	.+28     	; 0x3dc0 <_Z18checkButtonPressedv+0xd0>
    3da4:	80 91 9d 01 	lds	r24, 0x019D	; 0x80019d <currentChannel>
    3da8:	8f 5f       	subi	r24, 0xFF	; 255
    3daa:	89 30       	cpi	r24, 0x09	; 9
    3dac:	18 f4       	brcc	.+6      	; 0x3db4 <_Z18checkButtonPressedv+0xc4>
    3dae:	80 93 9d 01 	sts	0x019D, r24	; 0x80019d <currentChannel>
    3db2:	02 c0       	rjmp	.+4      	; 0x3db8 <_Z18checkButtonPressedv+0xc8>
    3db4:	10 92 9d 01 	sts	0x019D, r1	; 0x80019d <currentChannel>
    3db8:	61 e0       	ldi	r22, 0x01	; 1
    3dba:	80 91 9d 01 	lds	r24, 0x019D	; 0x80019d <currentChannel>
    3dbe:	10 c0       	rjmp	.+32     	; 0x3de0 <_Z18checkButtonPressedv+0xf0>
    3dc0:	80 91 9e 01 	lds	r24, 0x019E	; 0x80019e <control_button_up_time>
    3dc4:	90 91 9f 01 	lds	r25, 0x019F	; 0x80019f <control_button_up_time+0x1>
    3dc8:	a0 91 a0 01 	lds	r26, 0x01A0	; 0x8001a0 <control_button_up_time+0x2>
    3dcc:	b0 91 a1 01 	lds	r27, 0x01A1	; 0x8001a1 <control_button_up_time+0x3>
    3dd0:	88 3e       	cpi	r24, 0xE8	; 232
    3dd2:	93 40       	sbci	r25, 0x03	; 3
    3dd4:	a1 05       	cpc	r26, r1
    3dd6:	b1 05       	cpc	r27, r1
    3dd8:	38 f0       	brcs	.+14     	; 0x3de8 <_Z18checkButtonPressedv+0xf8>
    3dda:	0e 94 e3 1c 	call	0x39c6	; 0x39c6 <_Z15findBestChannelv>
    3dde:	61 e0       	ldi	r22, 0x01	; 1
    3de0:	1f 91       	pop	r17
    3de2:	0f 91       	pop	r16
    3de4:	0c 94 9d 1d 	jmp	0x3b3a	; 0x3b3a <_Z13selectChannelhb>
    3de8:	1f 91       	pop	r17
    3dea:	0f 91       	pop	r16
    3dec:	08 95       	ret

00003dee <_Z15readCurrentRSSIv>:
    3dee:	1f 93       	push	r17
    3df0:	cf 93       	push	r28
    3df2:	df 93       	push	r29
    3df4:	14 e6       	ldi	r17, 0x64	; 100
    3df6:	c0 e0       	ldi	r28, 0x00	; 0
    3df8:	d0 e0       	ldi	r29, 0x00	; 0
    3dfa:	80 e0       	ldi	r24, 0x00	; 0
    3dfc:	90 e0       	ldi	r25, 0x00	; 0
    3dfe:	0e 94 b6 1c 	call	0x396c	; 0x396c <_Z10analogReadi>
    3e02:	c8 0f       	add	r28, r24
    3e04:	d9 1f       	adc	r29, r25
    3e06:	11 50       	subi	r17, 0x01	; 1
    3e08:	c1 f7       	brne	.-16     	; 0x3dfa <_Z15readCurrentRSSIv+0xc>
    3e0a:	ce 01       	movw	r24, r28
    3e0c:	64 e6       	ldi	r22, 0x64	; 100
    3e0e:	70 e0       	ldi	r23, 0x00	; 0
    3e10:	0e 94 f4 1f 	call	0x3fe8	; 0x3fe8 <__udivmodhi4>
    3e14:	68 37       	cpi	r22, 0x78	; 120
    3e16:	71 05       	cpc	r23, r1
    3e18:	28 f0       	brcs	.+10     	; 0x3e24 <_Z15readCurrentRSSIv+0x36>
    3e1a:	70 93 9c 01 	sts	0x019C, r23	; 0x80019c <currentChannelRssi+0x1>
    3e1e:	60 93 9b 01 	sts	0x019B, r22	; 0x80019b <currentChannelRssi>
    3e22:	06 c0       	rjmp	.+12     	; 0x3e30 <_Z15readCurrentRSSIv+0x42>
    3e24:	88 e7       	ldi	r24, 0x78	; 120
    3e26:	90 e0       	ldi	r25, 0x00	; 0
    3e28:	90 93 9c 01 	sts	0x019C, r25	; 0x80019c <currentChannelRssi+0x1>
    3e2c:	80 93 9b 01 	sts	0x019B, r24	; 0x80019b <currentChannelRssi>
    3e30:	80 91 9b 01 	lds	r24, 0x019B	; 0x80019b <currentChannelRssi>
    3e34:	90 91 9c 01 	lds	r25, 0x019C	; 0x80019c <currentChannelRssi+0x1>
    3e38:	8f 30       	cpi	r24, 0x0F	; 15
    3e3a:	91 40       	sbci	r25, 0x01	; 1
    3e3c:	30 f0       	brcs	.+12     	; 0x3e4a <_Z15readCurrentRSSIv+0x5c>
    3e3e:	8e e0       	ldi	r24, 0x0E	; 14
    3e40:	91 e0       	ldi	r25, 0x01	; 1
    3e42:	90 93 9c 01 	sts	0x019C, r25	; 0x80019c <currentChannelRssi+0x1>
    3e46:	80 93 9b 01 	sts	0x019B, r24	; 0x80019b <currentChannelRssi>
    3e4a:	df 91       	pop	r29
    3e4c:	cf 91       	pop	r28
    3e4e:	1f 91       	pop	r17
    3e50:	08 95       	ret

00003e52 <_Z19displaySplashScreenv>:
    3e52:	ef 92       	push	r14
    3e54:	ff 92       	push	r15
    3e56:	0f 93       	push	r16
    3e58:	8e ec       	ldi	r24, 0xCE	; 206
    3e5a:	91 e0       	ldi	r25, 0x01	; 1
    3e5c:	0e 94 66 1a 	call	0x34cc	; 0x34cc <u8g_FirstPage>
    3e60:	68 e2       	ldi	r22, 0x28	; 40
    3e62:	75 e1       	ldi	r23, 0x15	; 21
    3e64:	8e ec       	ldi	r24, 0xCE	; 206
    3e66:	91 e0       	ldi	r25, 0x01	; 1
    3e68:	0e 94 26 19 	call	0x324c	; 0x324c <u8g_SetFont>
    3e6c:	23 e5       	ldi	r18, 0x53	; 83
    3e6e:	36 e2       	ldi	r19, 0x26	; 38
    3e70:	48 e1       	ldi	r20, 0x18	; 24
    3e72:	66 e3       	ldi	r22, 0x36	; 54
    3e74:	8e ec       	ldi	r24, 0xCE	; 206
    3e76:	91 e0       	ldi	r25, 0x01	; 1
    3e78:	0e 94 ad 18 	call	0x315a	; 0x315a <u8g_DrawStrP>
    3e7c:	61 e5       	ldi	r22, 0x51	; 81
    3e7e:	76 e0       	ldi	r23, 0x06	; 6
    3e80:	8e ec       	ldi	r24, 0xCE	; 206
    3e82:	91 e0       	ldi	r25, 0x01	; 1
    3e84:	0e 94 26 19 	call	0x324c	; 0x324c <u8g_SetFont>
    3e88:	26 e4       	ldi	r18, 0x46	; 70
    3e8a:	36 e2       	ldi	r19, 0x26	; 38
    3e8c:	44 e2       	ldi	r20, 0x24	; 36
    3e8e:	66 e3       	ldi	r22, 0x36	; 54
    3e90:	8e ec       	ldi	r24, 0xCE	; 206
    3e92:	91 e0       	ldi	r25, 0x01	; 1
    3e94:	0e 94 ad 18 	call	0x315a	; 0x315a <u8g_DrawStrP>
    3e98:	65 ea       	ldi	r22, 0xA5	; 165
    3e9a:	72 e2       	ldi	r23, 0x22	; 34
    3e9c:	8e ec       	ldi	r24, 0xCE	; 206
    3e9e:	91 e0       	ldi	r25, 0x01	; 1
    3ea0:	0e 94 26 19 	call	0x324c	; 0x324c <u8g_SetFont>
    3ea4:	25 e3       	ldi	r18, 0x35	; 53
    3ea6:	36 e2       	ldi	r19, 0x26	; 38
    3ea8:	40 e4       	ldi	r20, 0x40	; 64
    3eaa:	66 e4       	ldi	r22, 0x46	; 70
    3eac:	8e ec       	ldi	r24, 0xCE	; 206
    3eae:	91 e0       	ldi	r25, 0x01	; 1
    3eb0:	0e 94 ad 18 	call	0x315a	; 0x315a <u8g_DrawStrP>
    3eb4:	81 eb       	ldi	r24, 0xB1	; 177
    3eb6:	e8 2e       	mov	r14, r24
    3eb8:	86 e2       	ldi	r24, 0x26	; 38
    3eba:	f8 2e       	mov	r15, r24
    3ebc:	00 e3       	ldi	r16, 0x30	; 48
    3ebe:	20 e3       	ldi	r18, 0x30	; 48
    3ec0:	48 e0       	ldi	r20, 0x08	; 8
    3ec2:	60 e0       	ldi	r22, 0x00	; 0
    3ec4:	8e ec       	ldi	r24, 0xCE	; 206
    3ec6:	91 e0       	ldi	r25, 0x01	; 1
    3ec8:	0e 94 23 14 	call	0x2846	; 0x2846 <u8g_DrawXBMP>
    3ecc:	8e ec       	ldi	r24, 0xCE	; 206
    3ece:	91 e0       	ldi	r25, 0x01	; 1
    3ed0:	0e 94 6b 1a 	call	0x34d6	; 0x34d6 <u8g_NextPage>
    3ed4:	81 11       	cpse	r24, r1
    3ed6:	c4 cf       	rjmp	.-120    	; 0x3e60 <_Z19displaySplashScreenv+0xe>
    3ed8:	80 ed       	ldi	r24, 0xD0	; 208
    3eda:	97 e0       	ldi	r25, 0x07	; 7
    3edc:	0f 91       	pop	r16
    3ede:	ff 90       	pop	r15
    3ee0:	ef 90       	pop	r14
    3ee2:	0c 94 96 1c 	jmp	0x392c	; 0x392c <_Z5delayi>

00003ee6 <main>:
    3ee6:	0e 94 a2 1c 	call	0x3944	; 0x3944 <_Z13init_hardwarev>
    3eea:	0e 94 29 1f 	call	0x3e52	; 0x3e52 <_Z19displaySplashScreenv>
    3eee:	6f ef       	ldi	r22, 0xFF	; 255
    3ef0:	73 e0       	ldi	r23, 0x03	; 3
    3ef2:	8d ec       	ldi	r24, 0xCD	; 205
    3ef4:	91 e0       	ldi	r25, 0x01	; 1
    3ef6:	0e 94 1c 14 	call	0x2838	; 0x2838 <_ZN6EEPROM8readByteEj>
    3efa:	60 e0       	ldi	r22, 0x00	; 0
    3efc:	0e 94 9d 1d 	call	0x3b3a	; 0x3b3a <_Z13selectChannelhb>
    3f00:	80 91 9d 01 	lds	r24, 0x019D	; 0x80019d <currentChannel>
    3f04:	0e 94 e4 1d 	call	0x3bc8	; 0x3bc8 <_Z22displaySelectedChannelh>
    3f08:	0e 94 78 1e 	call	0x3cf0	; 0x3cf0 <_Z18checkButtonPressedv>
    3f0c:	0e 94 f7 1e 	call	0x3dee	; 0x3dee <_Z15readCurrentRSSIv>
    3f10:	f7 cf       	rjmp	.-18     	; 0x3f00 <main+0x1a>

00003f12 <_GLOBAL__sub_I__Z3maplllll>:
    3f12:	84 ec       	ldi	r24, 0xC4	; 196
    3f14:	91 e0       	ldi	r25, 0x01	; 1
    3f16:	0c 94 96 1f 	jmp	0x3f2c	; 0x3f2c <_ZN4TimeC1Ev>

00003f1a <_ZN4Time4initEv>:
    3f1a:	ee e6       	ldi	r30, 0x6E	; 110
    3f1c:	f0 e0       	ldi	r31, 0x00	; 0
    3f1e:	80 81       	ld	r24, Z
    3f20:	81 60       	ori	r24, 0x01	; 1
    3f22:	80 83       	st	Z, r24
    3f24:	85 b5       	in	r24, 0x25	; 37
    3f26:	83 60       	ori	r24, 0x03	; 3
    3f28:	85 bd       	out	0x25, r24	; 37
    3f2a:	08 95       	ret

00003f2c <_ZN4TimeC1Ev>:
    3f2c:	fc 01       	movw	r30, r24
    3f2e:	10 82       	st	Z, r1
    3f30:	11 82       	std	Z+1, r1	; 0x01
    3f32:	12 82       	std	Z+2, r1	; 0x02
    3f34:	13 82       	std	Z+3, r1	; 0x03
    3f36:	14 82       	std	Z+4, r1	; 0x04
    3f38:	15 82       	std	Z+5, r1	; 0x05
    3f3a:	16 82       	std	Z+6, r1	; 0x06
    3f3c:	17 82       	std	Z+7, r1	; 0x07
    3f3e:	10 86       	std	Z+8, r1	; 0x08
    3f40:	08 95       	ret

00003f42 <_ZN4Time6millisEv>:
    3f42:	2f b7       	in	r18, 0x3f	; 63
    3f44:	f8 94       	cli
    3f46:	fc 01       	movw	r30, r24
    3f48:	64 81       	ldd	r22, Z+4	; 0x04
    3f4a:	75 81       	ldd	r23, Z+5	; 0x05
    3f4c:	86 81       	ldd	r24, Z+6	; 0x06
    3f4e:	97 81       	ldd	r25, Z+7	; 0x07
    3f50:	2f bf       	out	0x3f, r18	; 63
    3f52:	08 95       	ret

00003f54 <__vector_16>:
    3f54:	1f 92       	push	r1
    3f56:	0f 92       	push	r0
    3f58:	0f b6       	in	r0, 0x3f	; 63
    3f5a:	0f 92       	push	r0
    3f5c:	11 24       	eor	r1, r1
    3f5e:	2f 93       	push	r18
    3f60:	3f 93       	push	r19
    3f62:	8f 93       	push	r24
    3f64:	9f 93       	push	r25
    3f66:	af 93       	push	r26
    3f68:	bf 93       	push	r27
    3f6a:	80 91 c8 01 	lds	r24, 0x01C8	; 0x8001c8 <time+0x4>
    3f6e:	90 91 c9 01 	lds	r25, 0x01C9	; 0x8001c9 <time+0x5>
    3f72:	a0 91 ca 01 	lds	r26, 0x01CA	; 0x8001ca <time+0x6>
    3f76:	b0 91 cb 01 	lds	r27, 0x01CB	; 0x8001cb <time+0x7>
    3f7a:	30 91 cc 01 	lds	r19, 0x01CC	; 0x8001cc <time+0x8>
    3f7e:	23 e0       	ldi	r18, 0x03	; 3
    3f80:	23 0f       	add	r18, r19
    3f82:	2d 37       	cpi	r18, 0x7D	; 125
    3f84:	20 f4       	brcc	.+8      	; 0x3f8e <__vector_16+0x3a>
    3f86:	01 96       	adiw	r24, 0x01	; 1
    3f88:	a1 1d       	adc	r26, r1
    3f8a:	b1 1d       	adc	r27, r1
    3f8c:	05 c0       	rjmp	.+10     	; 0x3f98 <__vector_16+0x44>
    3f8e:	26 e8       	ldi	r18, 0x86	; 134
    3f90:	23 0f       	add	r18, r19
    3f92:	02 96       	adiw	r24, 0x02	; 2
    3f94:	a1 1d       	adc	r26, r1
    3f96:	b1 1d       	adc	r27, r1
    3f98:	20 93 cc 01 	sts	0x01CC, r18	; 0x8001cc <time+0x8>
    3f9c:	80 93 c8 01 	sts	0x01C8, r24	; 0x8001c8 <time+0x4>
    3fa0:	90 93 c9 01 	sts	0x01C9, r25	; 0x8001c9 <time+0x5>
    3fa4:	a0 93 ca 01 	sts	0x01CA, r26	; 0x8001ca <time+0x6>
    3fa8:	b0 93 cb 01 	sts	0x01CB, r27	; 0x8001cb <time+0x7>
    3fac:	80 91 c4 01 	lds	r24, 0x01C4	; 0x8001c4 <time>
    3fb0:	90 91 c5 01 	lds	r25, 0x01C5	; 0x8001c5 <time+0x1>
    3fb4:	a0 91 c6 01 	lds	r26, 0x01C6	; 0x8001c6 <time+0x2>
    3fb8:	b0 91 c7 01 	lds	r27, 0x01C7	; 0x8001c7 <time+0x3>
    3fbc:	01 96       	adiw	r24, 0x01	; 1
    3fbe:	a1 1d       	adc	r26, r1
    3fc0:	b1 1d       	adc	r27, r1
    3fc2:	80 93 c4 01 	sts	0x01C4, r24	; 0x8001c4 <time>
    3fc6:	90 93 c5 01 	sts	0x01C5, r25	; 0x8001c5 <time+0x1>
    3fca:	a0 93 c6 01 	sts	0x01C6, r26	; 0x8001c6 <time+0x2>
    3fce:	b0 93 c7 01 	sts	0x01C7, r27	; 0x8001c7 <time+0x3>
    3fd2:	bf 91       	pop	r27
    3fd4:	af 91       	pop	r26
    3fd6:	9f 91       	pop	r25
    3fd8:	8f 91       	pop	r24
    3fda:	3f 91       	pop	r19
    3fdc:	2f 91       	pop	r18
    3fde:	0f 90       	pop	r0
    3fe0:	0f be       	out	0x3f, r0	; 63
    3fe2:	0f 90       	pop	r0
    3fe4:	1f 90       	pop	r1
    3fe6:	18 95       	reti

00003fe8 <__udivmodhi4>:
    3fe8:	aa 1b       	sub	r26, r26
    3fea:	bb 1b       	sub	r27, r27
    3fec:	51 e1       	ldi	r21, 0x11	; 17
    3fee:	07 c0       	rjmp	.+14     	; 0x3ffe <__udivmodhi4_ep>

00003ff0 <__udivmodhi4_loop>:
    3ff0:	aa 1f       	adc	r26, r26
    3ff2:	bb 1f       	adc	r27, r27
    3ff4:	a6 17       	cp	r26, r22
    3ff6:	b7 07       	cpc	r27, r23
    3ff8:	10 f0       	brcs	.+4      	; 0x3ffe <__udivmodhi4_ep>
    3ffa:	a6 1b       	sub	r26, r22
    3ffc:	b7 0b       	sbc	r27, r23

00003ffe <__udivmodhi4_ep>:
    3ffe:	88 1f       	adc	r24, r24
    4000:	99 1f       	adc	r25, r25
    4002:	5a 95       	dec	r21
    4004:	a9 f7       	brne	.-22     	; 0x3ff0 <__udivmodhi4_loop>
    4006:	80 95       	com	r24
    4008:	90 95       	com	r25
    400a:	bc 01       	movw	r22, r24
    400c:	cd 01       	movw	r24, r26
    400e:	08 95       	ret

00004010 <__tablejump2__>:
    4010:	ee 0f       	add	r30, r30
    4012:	ff 1f       	adc	r31, r31
    4014:	05 90       	lpm	r0, Z+
    4016:	f4 91       	lpm	r31, Z
    4018:	e0 2d       	mov	r30, r0
    401a:	09 94       	ijmp

0000401c <strcpy_P>:
    401c:	fb 01       	movw	r30, r22
    401e:	dc 01       	movw	r26, r24
    4020:	05 90       	lpm	r0, Z+
    4022:	0d 92       	st	X+, r0
    4024:	00 20       	and	r0, r0
    4026:	e1 f7       	brne	.-8      	; 0x4020 <strcpy_P+0x4>
    4028:	08 95       	ret

0000402a <sprintf_P>:
    402a:	ae e0       	ldi	r26, 0x0E	; 14
    402c:	b0 e0       	ldi	r27, 0x00	; 0
    402e:	eb e1       	ldi	r30, 0x1B	; 27
    4030:	f0 e2       	ldi	r31, 0x20	; 32
    4032:	0c 94 c4 22 	jmp	0x4588	; 0x4588 <__prologue_saves__+0x1c>
    4036:	0d 89       	ldd	r16, Y+21	; 0x15
    4038:	1e 89       	ldd	r17, Y+22	; 0x16
    403a:	8e e0       	ldi	r24, 0x0E	; 14
    403c:	8c 83       	std	Y+4, r24	; 0x04
    403e:	1a 83       	std	Y+2, r17	; 0x02
    4040:	09 83       	std	Y+1, r16	; 0x01
    4042:	8f ef       	ldi	r24, 0xFF	; 255
    4044:	9f e7       	ldi	r25, 0x7F	; 127
    4046:	9e 83       	std	Y+6, r25	; 0x06
    4048:	8d 83       	std	Y+5, r24	; 0x05
    404a:	ae 01       	movw	r20, r28
    404c:	47 5e       	subi	r20, 0xE7	; 231
    404e:	5f 4f       	sbci	r21, 0xFF	; 255
    4050:	6f 89       	ldd	r22, Y+23	; 0x17
    4052:	78 8d       	ldd	r23, Y+24	; 0x18
    4054:	ce 01       	movw	r24, r28
    4056:	01 96       	adiw	r24, 0x01	; 1
    4058:	0e 94 38 20 	call	0x4070	; 0x4070 <vfprintf>
    405c:	2f 81       	ldd	r18, Y+7	; 0x07
    405e:	38 85       	ldd	r19, Y+8	; 0x08
    4060:	f8 01       	movw	r30, r16
    4062:	e2 0f       	add	r30, r18
    4064:	f3 1f       	adc	r31, r19
    4066:	10 82       	st	Z, r1
    4068:	2e 96       	adiw	r28, 0x0e	; 14
    406a:	e4 e0       	ldi	r30, 0x04	; 4
    406c:	0c 94 e0 22 	jmp	0x45c0	; 0x45c0 <__epilogue_restores__+0x1c>

00004070 <vfprintf>:
    4070:	ac e0       	ldi	r26, 0x0C	; 12
    4072:	b0 e0       	ldi	r27, 0x00	; 0
    4074:	ee e3       	ldi	r30, 0x3E	; 62
    4076:	f0 e2       	ldi	r31, 0x20	; 32
    4078:	0c 94 b6 22 	jmp	0x456c	; 0x456c <__prologue_saves__>
    407c:	7c 01       	movw	r14, r24
    407e:	6b 01       	movw	r12, r22
    4080:	8a 01       	movw	r16, r20
    4082:	fc 01       	movw	r30, r24
    4084:	17 82       	std	Z+7, r1	; 0x07
    4086:	16 82       	std	Z+6, r1	; 0x06
    4088:	83 81       	ldd	r24, Z+3	; 0x03
    408a:	81 ff       	sbrs	r24, 1
    408c:	bd c1       	rjmp	.+890    	; 0x4408 <vfprintf+0x398>
    408e:	ce 01       	movw	r24, r28
    4090:	01 96       	adiw	r24, 0x01	; 1
    4092:	4c 01       	movw	r8, r24
    4094:	f7 01       	movw	r30, r14
    4096:	93 81       	ldd	r25, Z+3	; 0x03
    4098:	f6 01       	movw	r30, r12
    409a:	93 fd       	sbrc	r25, 3
    409c:	85 91       	lpm	r24, Z+
    409e:	93 ff       	sbrs	r25, 3
    40a0:	81 91       	ld	r24, Z+
    40a2:	6f 01       	movw	r12, r30
    40a4:	88 23       	and	r24, r24
    40a6:	09 f4       	brne	.+2      	; 0x40aa <vfprintf+0x3a>
    40a8:	ab c1       	rjmp	.+854    	; 0x4400 <vfprintf+0x390>
    40aa:	85 32       	cpi	r24, 0x25	; 37
    40ac:	39 f4       	brne	.+14     	; 0x40bc <vfprintf+0x4c>
    40ae:	93 fd       	sbrc	r25, 3
    40b0:	85 91       	lpm	r24, Z+
    40b2:	93 ff       	sbrs	r25, 3
    40b4:	81 91       	ld	r24, Z+
    40b6:	6f 01       	movw	r12, r30
    40b8:	85 32       	cpi	r24, 0x25	; 37
    40ba:	29 f4       	brne	.+10     	; 0x40c6 <vfprintf+0x56>
    40bc:	b7 01       	movw	r22, r14
    40be:	90 e0       	ldi	r25, 0x00	; 0
    40c0:	0e 94 20 22 	call	0x4440	; 0x4440 <fputc>
    40c4:	e7 cf       	rjmp	.-50     	; 0x4094 <vfprintf+0x24>
    40c6:	51 2c       	mov	r5, r1
    40c8:	31 2c       	mov	r3, r1
    40ca:	20 e0       	ldi	r18, 0x00	; 0
    40cc:	20 32       	cpi	r18, 0x20	; 32
    40ce:	a0 f4       	brcc	.+40     	; 0x40f8 <vfprintf+0x88>
    40d0:	8b 32       	cpi	r24, 0x2B	; 43
    40d2:	69 f0       	breq	.+26     	; 0x40ee <vfprintf+0x7e>
    40d4:	30 f4       	brcc	.+12     	; 0x40e2 <vfprintf+0x72>
    40d6:	80 32       	cpi	r24, 0x20	; 32
    40d8:	59 f0       	breq	.+22     	; 0x40f0 <vfprintf+0x80>
    40da:	83 32       	cpi	r24, 0x23	; 35
    40dc:	69 f4       	brne	.+26     	; 0x40f8 <vfprintf+0x88>
    40de:	20 61       	ori	r18, 0x10	; 16
    40e0:	2c c0       	rjmp	.+88     	; 0x413a <vfprintf+0xca>
    40e2:	8d 32       	cpi	r24, 0x2D	; 45
    40e4:	39 f0       	breq	.+14     	; 0x40f4 <vfprintf+0x84>
    40e6:	80 33       	cpi	r24, 0x30	; 48
    40e8:	39 f4       	brne	.+14     	; 0x40f8 <vfprintf+0x88>
    40ea:	21 60       	ori	r18, 0x01	; 1
    40ec:	26 c0       	rjmp	.+76     	; 0x413a <vfprintf+0xca>
    40ee:	22 60       	ori	r18, 0x02	; 2
    40f0:	24 60       	ori	r18, 0x04	; 4
    40f2:	23 c0       	rjmp	.+70     	; 0x413a <vfprintf+0xca>
    40f4:	28 60       	ori	r18, 0x08	; 8
    40f6:	21 c0       	rjmp	.+66     	; 0x413a <vfprintf+0xca>
    40f8:	27 fd       	sbrc	r18, 7
    40fa:	27 c0       	rjmp	.+78     	; 0x414a <vfprintf+0xda>
    40fc:	30 ed       	ldi	r19, 0xD0	; 208
    40fe:	38 0f       	add	r19, r24
    4100:	3a 30       	cpi	r19, 0x0A	; 10
    4102:	78 f4       	brcc	.+30     	; 0x4122 <vfprintf+0xb2>
    4104:	26 ff       	sbrs	r18, 6
    4106:	06 c0       	rjmp	.+12     	; 0x4114 <vfprintf+0xa4>
    4108:	fa e0       	ldi	r31, 0x0A	; 10
    410a:	5f 9e       	mul	r5, r31
    410c:	30 0d       	add	r19, r0
    410e:	11 24       	eor	r1, r1
    4110:	53 2e       	mov	r5, r19
    4112:	13 c0       	rjmp	.+38     	; 0x413a <vfprintf+0xca>
    4114:	8a e0       	ldi	r24, 0x0A	; 10
    4116:	38 9e       	mul	r3, r24
    4118:	30 0d       	add	r19, r0
    411a:	11 24       	eor	r1, r1
    411c:	33 2e       	mov	r3, r19
    411e:	20 62       	ori	r18, 0x20	; 32
    4120:	0c c0       	rjmp	.+24     	; 0x413a <vfprintf+0xca>
    4122:	8e 32       	cpi	r24, 0x2E	; 46
    4124:	21 f4       	brne	.+8      	; 0x412e <vfprintf+0xbe>
    4126:	26 fd       	sbrc	r18, 6
    4128:	6b c1       	rjmp	.+726    	; 0x4400 <vfprintf+0x390>
    412a:	20 64       	ori	r18, 0x40	; 64
    412c:	06 c0       	rjmp	.+12     	; 0x413a <vfprintf+0xca>
    412e:	8c 36       	cpi	r24, 0x6C	; 108
    4130:	11 f4       	brne	.+4      	; 0x4136 <vfprintf+0xc6>
    4132:	20 68       	ori	r18, 0x80	; 128
    4134:	02 c0       	rjmp	.+4      	; 0x413a <vfprintf+0xca>
    4136:	88 36       	cpi	r24, 0x68	; 104
    4138:	41 f4       	brne	.+16     	; 0x414a <vfprintf+0xda>
    413a:	f6 01       	movw	r30, r12
    413c:	93 fd       	sbrc	r25, 3
    413e:	85 91       	lpm	r24, Z+
    4140:	93 ff       	sbrs	r25, 3
    4142:	81 91       	ld	r24, Z+
    4144:	6f 01       	movw	r12, r30
    4146:	81 11       	cpse	r24, r1
    4148:	c1 cf       	rjmp	.-126    	; 0x40cc <vfprintf+0x5c>
    414a:	98 2f       	mov	r25, r24
    414c:	9f 7d       	andi	r25, 0xDF	; 223
    414e:	95 54       	subi	r25, 0x45	; 69
    4150:	93 30       	cpi	r25, 0x03	; 3
    4152:	28 f4       	brcc	.+10     	; 0x415e <vfprintf+0xee>
    4154:	0c 5f       	subi	r16, 0xFC	; 252
    4156:	1f 4f       	sbci	r17, 0xFF	; 255
    4158:	ff e3       	ldi	r31, 0x3F	; 63
    415a:	f9 83       	std	Y+1, r31	; 0x01
    415c:	0d c0       	rjmp	.+26     	; 0x4178 <vfprintf+0x108>
    415e:	83 36       	cpi	r24, 0x63	; 99
    4160:	31 f0       	breq	.+12     	; 0x416e <vfprintf+0xfe>
    4162:	83 37       	cpi	r24, 0x73	; 115
    4164:	71 f0       	breq	.+28     	; 0x4182 <vfprintf+0x112>
    4166:	83 35       	cpi	r24, 0x53	; 83
    4168:	09 f0       	breq	.+2      	; 0x416c <vfprintf+0xfc>
    416a:	5b c0       	rjmp	.+182    	; 0x4222 <vfprintf+0x1b2>
    416c:	22 c0       	rjmp	.+68     	; 0x41b2 <vfprintf+0x142>
    416e:	f8 01       	movw	r30, r16
    4170:	80 81       	ld	r24, Z
    4172:	89 83       	std	Y+1, r24	; 0x01
    4174:	0e 5f       	subi	r16, 0xFE	; 254
    4176:	1f 4f       	sbci	r17, 0xFF	; 255
    4178:	44 24       	eor	r4, r4
    417a:	43 94       	inc	r4
    417c:	51 2c       	mov	r5, r1
    417e:	54 01       	movw	r10, r8
    4180:	15 c0       	rjmp	.+42     	; 0x41ac <vfprintf+0x13c>
    4182:	38 01       	movw	r6, r16
    4184:	f2 e0       	ldi	r31, 0x02	; 2
    4186:	6f 0e       	add	r6, r31
    4188:	71 1c       	adc	r7, r1
    418a:	f8 01       	movw	r30, r16
    418c:	a0 80       	ld	r10, Z
    418e:	b1 80       	ldd	r11, Z+1	; 0x01
    4190:	26 ff       	sbrs	r18, 6
    4192:	03 c0       	rjmp	.+6      	; 0x419a <vfprintf+0x12a>
    4194:	65 2d       	mov	r22, r5
    4196:	70 e0       	ldi	r23, 0x00	; 0
    4198:	02 c0       	rjmp	.+4      	; 0x419e <vfprintf+0x12e>
    419a:	6f ef       	ldi	r22, 0xFF	; 255
    419c:	7f ef       	ldi	r23, 0xFF	; 255
    419e:	c5 01       	movw	r24, r10
    41a0:	2c 87       	std	Y+12, r18	; 0x0c
    41a2:	0e 94 15 22 	call	0x442a	; 0x442a <strnlen>
    41a6:	2c 01       	movw	r4, r24
    41a8:	83 01       	movw	r16, r6
    41aa:	2c 85       	ldd	r18, Y+12	; 0x0c
    41ac:	2f 77       	andi	r18, 0x7F	; 127
    41ae:	22 2e       	mov	r2, r18
    41b0:	17 c0       	rjmp	.+46     	; 0x41e0 <vfprintf+0x170>
    41b2:	38 01       	movw	r6, r16
    41b4:	f2 e0       	ldi	r31, 0x02	; 2
    41b6:	6f 0e       	add	r6, r31
    41b8:	71 1c       	adc	r7, r1
    41ba:	f8 01       	movw	r30, r16
    41bc:	a0 80       	ld	r10, Z
    41be:	b1 80       	ldd	r11, Z+1	; 0x01
    41c0:	26 ff       	sbrs	r18, 6
    41c2:	03 c0       	rjmp	.+6      	; 0x41ca <vfprintf+0x15a>
    41c4:	65 2d       	mov	r22, r5
    41c6:	70 e0       	ldi	r23, 0x00	; 0
    41c8:	02 c0       	rjmp	.+4      	; 0x41ce <vfprintf+0x15e>
    41ca:	6f ef       	ldi	r22, 0xFF	; 255
    41cc:	7f ef       	ldi	r23, 0xFF	; 255
    41ce:	c5 01       	movw	r24, r10
    41d0:	2c 87       	std	Y+12, r18	; 0x0c
    41d2:	0e 94 0a 22 	call	0x4414	; 0x4414 <strnlen_P>
    41d6:	2c 01       	movw	r4, r24
    41d8:	2c 85       	ldd	r18, Y+12	; 0x0c
    41da:	20 68       	ori	r18, 0x80	; 128
    41dc:	22 2e       	mov	r2, r18
    41de:	83 01       	movw	r16, r6
    41e0:	23 fc       	sbrc	r2, 3
    41e2:	1b c0       	rjmp	.+54     	; 0x421a <vfprintf+0x1aa>
    41e4:	83 2d       	mov	r24, r3
    41e6:	90 e0       	ldi	r25, 0x00	; 0
    41e8:	48 16       	cp	r4, r24
    41ea:	59 06       	cpc	r5, r25
    41ec:	b0 f4       	brcc	.+44     	; 0x421a <vfprintf+0x1aa>
    41ee:	b7 01       	movw	r22, r14
    41f0:	80 e2       	ldi	r24, 0x20	; 32
    41f2:	90 e0       	ldi	r25, 0x00	; 0
    41f4:	0e 94 20 22 	call	0x4440	; 0x4440 <fputc>
    41f8:	3a 94       	dec	r3
    41fa:	f4 cf       	rjmp	.-24     	; 0x41e4 <vfprintf+0x174>
    41fc:	f5 01       	movw	r30, r10
    41fe:	27 fc       	sbrc	r2, 7
    4200:	85 91       	lpm	r24, Z+
    4202:	27 fe       	sbrs	r2, 7
    4204:	81 91       	ld	r24, Z+
    4206:	5f 01       	movw	r10, r30
    4208:	b7 01       	movw	r22, r14
    420a:	90 e0       	ldi	r25, 0x00	; 0
    420c:	0e 94 20 22 	call	0x4440	; 0x4440 <fputc>
    4210:	31 10       	cpse	r3, r1
    4212:	3a 94       	dec	r3
    4214:	f1 e0       	ldi	r31, 0x01	; 1
    4216:	4f 1a       	sub	r4, r31
    4218:	51 08       	sbc	r5, r1
    421a:	41 14       	cp	r4, r1
    421c:	51 04       	cpc	r5, r1
    421e:	71 f7       	brne	.-36     	; 0x41fc <vfprintf+0x18c>
    4220:	e5 c0       	rjmp	.+458    	; 0x43ec <vfprintf+0x37c>
    4222:	84 36       	cpi	r24, 0x64	; 100
    4224:	11 f0       	breq	.+4      	; 0x422a <vfprintf+0x1ba>
    4226:	89 36       	cpi	r24, 0x69	; 105
    4228:	39 f5       	brne	.+78     	; 0x4278 <vfprintf+0x208>
    422a:	f8 01       	movw	r30, r16
    422c:	27 ff       	sbrs	r18, 7
    422e:	07 c0       	rjmp	.+14     	; 0x423e <vfprintf+0x1ce>
    4230:	60 81       	ld	r22, Z
    4232:	71 81       	ldd	r23, Z+1	; 0x01
    4234:	82 81       	ldd	r24, Z+2	; 0x02
    4236:	93 81       	ldd	r25, Z+3	; 0x03
    4238:	0c 5f       	subi	r16, 0xFC	; 252
    423a:	1f 4f       	sbci	r17, 0xFF	; 255
    423c:	08 c0       	rjmp	.+16     	; 0x424e <vfprintf+0x1de>
    423e:	60 81       	ld	r22, Z
    4240:	71 81       	ldd	r23, Z+1	; 0x01
    4242:	07 2e       	mov	r0, r23
    4244:	00 0c       	add	r0, r0
    4246:	88 0b       	sbc	r24, r24
    4248:	99 0b       	sbc	r25, r25
    424a:	0e 5f       	subi	r16, 0xFE	; 254
    424c:	1f 4f       	sbci	r17, 0xFF	; 255
    424e:	2f 76       	andi	r18, 0x6F	; 111
    4250:	72 2e       	mov	r7, r18
    4252:	97 ff       	sbrs	r25, 7
    4254:	09 c0       	rjmp	.+18     	; 0x4268 <vfprintf+0x1f8>
    4256:	90 95       	com	r25
    4258:	80 95       	com	r24
    425a:	70 95       	com	r23
    425c:	61 95       	neg	r22
    425e:	7f 4f       	sbci	r23, 0xFF	; 255
    4260:	8f 4f       	sbci	r24, 0xFF	; 255
    4262:	9f 4f       	sbci	r25, 0xFF	; 255
    4264:	20 68       	ori	r18, 0x80	; 128
    4266:	72 2e       	mov	r7, r18
    4268:	2a e0       	ldi	r18, 0x0A	; 10
    426a:	30 e0       	ldi	r19, 0x00	; 0
    426c:	a4 01       	movw	r20, r8
    426e:	0e 94 58 22 	call	0x44b0	; 0x44b0 <__ultoa_invert>
    4272:	a8 2e       	mov	r10, r24
    4274:	a8 18       	sub	r10, r8
    4276:	44 c0       	rjmp	.+136    	; 0x4300 <vfprintf+0x290>
    4278:	85 37       	cpi	r24, 0x75	; 117
    427a:	29 f4       	brne	.+10     	; 0x4286 <vfprintf+0x216>
    427c:	2f 7e       	andi	r18, 0xEF	; 239
    427e:	b2 2e       	mov	r11, r18
    4280:	2a e0       	ldi	r18, 0x0A	; 10
    4282:	30 e0       	ldi	r19, 0x00	; 0
    4284:	25 c0       	rjmp	.+74     	; 0x42d0 <vfprintf+0x260>
    4286:	f2 2f       	mov	r31, r18
    4288:	f9 7f       	andi	r31, 0xF9	; 249
    428a:	bf 2e       	mov	r11, r31
    428c:	8f 36       	cpi	r24, 0x6F	; 111
    428e:	c1 f0       	breq	.+48     	; 0x42c0 <vfprintf+0x250>
    4290:	18 f4       	brcc	.+6      	; 0x4298 <vfprintf+0x228>
    4292:	88 35       	cpi	r24, 0x58	; 88
    4294:	79 f0       	breq	.+30     	; 0x42b4 <vfprintf+0x244>
    4296:	b4 c0       	rjmp	.+360    	; 0x4400 <vfprintf+0x390>
    4298:	80 37       	cpi	r24, 0x70	; 112
    429a:	19 f0       	breq	.+6      	; 0x42a2 <vfprintf+0x232>
    429c:	88 37       	cpi	r24, 0x78	; 120
    429e:	21 f0       	breq	.+8      	; 0x42a8 <vfprintf+0x238>
    42a0:	af c0       	rjmp	.+350    	; 0x4400 <vfprintf+0x390>
    42a2:	2f 2f       	mov	r18, r31
    42a4:	20 61       	ori	r18, 0x10	; 16
    42a6:	b2 2e       	mov	r11, r18
    42a8:	b4 fe       	sbrs	r11, 4
    42aa:	0d c0       	rjmp	.+26     	; 0x42c6 <vfprintf+0x256>
    42ac:	8b 2d       	mov	r24, r11
    42ae:	84 60       	ori	r24, 0x04	; 4
    42b0:	b8 2e       	mov	r11, r24
    42b2:	09 c0       	rjmp	.+18     	; 0x42c6 <vfprintf+0x256>
    42b4:	24 ff       	sbrs	r18, 4
    42b6:	0a c0       	rjmp	.+20     	; 0x42cc <vfprintf+0x25c>
    42b8:	9f 2f       	mov	r25, r31
    42ba:	96 60       	ori	r25, 0x06	; 6
    42bc:	b9 2e       	mov	r11, r25
    42be:	06 c0       	rjmp	.+12     	; 0x42cc <vfprintf+0x25c>
    42c0:	28 e0       	ldi	r18, 0x08	; 8
    42c2:	30 e0       	ldi	r19, 0x00	; 0
    42c4:	05 c0       	rjmp	.+10     	; 0x42d0 <vfprintf+0x260>
    42c6:	20 e1       	ldi	r18, 0x10	; 16
    42c8:	30 e0       	ldi	r19, 0x00	; 0
    42ca:	02 c0       	rjmp	.+4      	; 0x42d0 <vfprintf+0x260>
    42cc:	20 e1       	ldi	r18, 0x10	; 16
    42ce:	32 e0       	ldi	r19, 0x02	; 2
    42d0:	f8 01       	movw	r30, r16
    42d2:	b7 fe       	sbrs	r11, 7
    42d4:	07 c0       	rjmp	.+14     	; 0x42e4 <vfprintf+0x274>
    42d6:	60 81       	ld	r22, Z
    42d8:	71 81       	ldd	r23, Z+1	; 0x01
    42da:	82 81       	ldd	r24, Z+2	; 0x02
    42dc:	93 81       	ldd	r25, Z+3	; 0x03
    42de:	0c 5f       	subi	r16, 0xFC	; 252
    42e0:	1f 4f       	sbci	r17, 0xFF	; 255
    42e2:	06 c0       	rjmp	.+12     	; 0x42f0 <vfprintf+0x280>
    42e4:	60 81       	ld	r22, Z
    42e6:	71 81       	ldd	r23, Z+1	; 0x01
    42e8:	80 e0       	ldi	r24, 0x00	; 0
    42ea:	90 e0       	ldi	r25, 0x00	; 0
    42ec:	0e 5f       	subi	r16, 0xFE	; 254
    42ee:	1f 4f       	sbci	r17, 0xFF	; 255
    42f0:	a4 01       	movw	r20, r8
    42f2:	0e 94 58 22 	call	0x44b0	; 0x44b0 <__ultoa_invert>
    42f6:	a8 2e       	mov	r10, r24
    42f8:	a8 18       	sub	r10, r8
    42fa:	fb 2d       	mov	r31, r11
    42fc:	ff 77       	andi	r31, 0x7F	; 127
    42fe:	7f 2e       	mov	r7, r31
    4300:	76 fe       	sbrs	r7, 6
    4302:	0b c0       	rjmp	.+22     	; 0x431a <vfprintf+0x2aa>
    4304:	37 2d       	mov	r19, r7
    4306:	3e 7f       	andi	r19, 0xFE	; 254
    4308:	a5 14       	cp	r10, r5
    430a:	50 f4       	brcc	.+20     	; 0x4320 <vfprintf+0x2b0>
    430c:	74 fe       	sbrs	r7, 4
    430e:	0a c0       	rjmp	.+20     	; 0x4324 <vfprintf+0x2b4>
    4310:	72 fc       	sbrc	r7, 2
    4312:	08 c0       	rjmp	.+16     	; 0x4324 <vfprintf+0x2b4>
    4314:	37 2d       	mov	r19, r7
    4316:	3e 7e       	andi	r19, 0xEE	; 238
    4318:	05 c0       	rjmp	.+10     	; 0x4324 <vfprintf+0x2b4>
    431a:	ba 2c       	mov	r11, r10
    431c:	37 2d       	mov	r19, r7
    431e:	03 c0       	rjmp	.+6      	; 0x4326 <vfprintf+0x2b6>
    4320:	ba 2c       	mov	r11, r10
    4322:	01 c0       	rjmp	.+2      	; 0x4326 <vfprintf+0x2b6>
    4324:	b5 2c       	mov	r11, r5
    4326:	34 ff       	sbrs	r19, 4
    4328:	0d c0       	rjmp	.+26     	; 0x4344 <vfprintf+0x2d4>
    432a:	fe 01       	movw	r30, r28
    432c:	ea 0d       	add	r30, r10
    432e:	f1 1d       	adc	r31, r1
    4330:	80 81       	ld	r24, Z
    4332:	80 33       	cpi	r24, 0x30	; 48
    4334:	11 f4       	brne	.+4      	; 0x433a <vfprintf+0x2ca>
    4336:	39 7e       	andi	r19, 0xE9	; 233
    4338:	09 c0       	rjmp	.+18     	; 0x434c <vfprintf+0x2dc>
    433a:	32 ff       	sbrs	r19, 2
    433c:	06 c0       	rjmp	.+12     	; 0x434a <vfprintf+0x2da>
    433e:	b3 94       	inc	r11
    4340:	b3 94       	inc	r11
    4342:	04 c0       	rjmp	.+8      	; 0x434c <vfprintf+0x2dc>
    4344:	83 2f       	mov	r24, r19
    4346:	86 78       	andi	r24, 0x86	; 134
    4348:	09 f0       	breq	.+2      	; 0x434c <vfprintf+0x2dc>
    434a:	b3 94       	inc	r11
    434c:	33 fd       	sbrc	r19, 3
    434e:	13 c0       	rjmp	.+38     	; 0x4376 <vfprintf+0x306>
    4350:	30 ff       	sbrs	r19, 0
    4352:	06 c0       	rjmp	.+12     	; 0x4360 <vfprintf+0x2f0>
    4354:	5a 2c       	mov	r5, r10
    4356:	b3 14       	cp	r11, r3
    4358:	18 f4       	brcc	.+6      	; 0x4360 <vfprintf+0x2f0>
    435a:	53 0c       	add	r5, r3
    435c:	5b 18       	sub	r5, r11
    435e:	b3 2c       	mov	r11, r3
    4360:	b3 14       	cp	r11, r3
    4362:	68 f4       	brcc	.+26     	; 0x437e <vfprintf+0x30e>
    4364:	b7 01       	movw	r22, r14
    4366:	80 e2       	ldi	r24, 0x20	; 32
    4368:	90 e0       	ldi	r25, 0x00	; 0
    436a:	3c 87       	std	Y+12, r19	; 0x0c
    436c:	0e 94 20 22 	call	0x4440	; 0x4440 <fputc>
    4370:	b3 94       	inc	r11
    4372:	3c 85       	ldd	r19, Y+12	; 0x0c
    4374:	f5 cf       	rjmp	.-22     	; 0x4360 <vfprintf+0x2f0>
    4376:	b3 14       	cp	r11, r3
    4378:	10 f4       	brcc	.+4      	; 0x437e <vfprintf+0x30e>
    437a:	3b 18       	sub	r3, r11
    437c:	01 c0       	rjmp	.+2      	; 0x4380 <vfprintf+0x310>
    437e:	31 2c       	mov	r3, r1
    4380:	34 ff       	sbrs	r19, 4
    4382:	12 c0       	rjmp	.+36     	; 0x43a8 <vfprintf+0x338>
    4384:	b7 01       	movw	r22, r14
    4386:	80 e3       	ldi	r24, 0x30	; 48
    4388:	90 e0       	ldi	r25, 0x00	; 0
    438a:	3c 87       	std	Y+12, r19	; 0x0c
    438c:	0e 94 20 22 	call	0x4440	; 0x4440 <fputc>
    4390:	3c 85       	ldd	r19, Y+12	; 0x0c
    4392:	32 ff       	sbrs	r19, 2
    4394:	17 c0       	rjmp	.+46     	; 0x43c4 <vfprintf+0x354>
    4396:	31 fd       	sbrc	r19, 1
    4398:	03 c0       	rjmp	.+6      	; 0x43a0 <vfprintf+0x330>
    439a:	88 e7       	ldi	r24, 0x78	; 120
    439c:	90 e0       	ldi	r25, 0x00	; 0
    439e:	02 c0       	rjmp	.+4      	; 0x43a4 <vfprintf+0x334>
    43a0:	88 e5       	ldi	r24, 0x58	; 88
    43a2:	90 e0       	ldi	r25, 0x00	; 0
    43a4:	b7 01       	movw	r22, r14
    43a6:	0c c0       	rjmp	.+24     	; 0x43c0 <vfprintf+0x350>
    43a8:	83 2f       	mov	r24, r19
    43aa:	86 78       	andi	r24, 0x86	; 134
    43ac:	59 f0       	breq	.+22     	; 0x43c4 <vfprintf+0x354>
    43ae:	31 ff       	sbrs	r19, 1
    43b0:	02 c0       	rjmp	.+4      	; 0x43b6 <vfprintf+0x346>
    43b2:	8b e2       	ldi	r24, 0x2B	; 43
    43b4:	01 c0       	rjmp	.+2      	; 0x43b8 <vfprintf+0x348>
    43b6:	80 e2       	ldi	r24, 0x20	; 32
    43b8:	37 fd       	sbrc	r19, 7
    43ba:	8d e2       	ldi	r24, 0x2D	; 45
    43bc:	b7 01       	movw	r22, r14
    43be:	90 e0       	ldi	r25, 0x00	; 0
    43c0:	0e 94 20 22 	call	0x4440	; 0x4440 <fputc>
    43c4:	a5 14       	cp	r10, r5
    43c6:	38 f4       	brcc	.+14     	; 0x43d6 <vfprintf+0x366>
    43c8:	b7 01       	movw	r22, r14
    43ca:	80 e3       	ldi	r24, 0x30	; 48
    43cc:	90 e0       	ldi	r25, 0x00	; 0
    43ce:	0e 94 20 22 	call	0x4440	; 0x4440 <fputc>
    43d2:	5a 94       	dec	r5
    43d4:	f7 cf       	rjmp	.-18     	; 0x43c4 <vfprintf+0x354>
    43d6:	aa 94       	dec	r10
    43d8:	f4 01       	movw	r30, r8
    43da:	ea 0d       	add	r30, r10
    43dc:	f1 1d       	adc	r31, r1
    43de:	80 81       	ld	r24, Z
    43e0:	b7 01       	movw	r22, r14
    43e2:	90 e0       	ldi	r25, 0x00	; 0
    43e4:	0e 94 20 22 	call	0x4440	; 0x4440 <fputc>
    43e8:	a1 10       	cpse	r10, r1
    43ea:	f5 cf       	rjmp	.-22     	; 0x43d6 <vfprintf+0x366>
    43ec:	33 20       	and	r3, r3
    43ee:	09 f4       	brne	.+2      	; 0x43f2 <vfprintf+0x382>
    43f0:	51 ce       	rjmp	.-862    	; 0x4094 <vfprintf+0x24>
    43f2:	b7 01       	movw	r22, r14
    43f4:	80 e2       	ldi	r24, 0x20	; 32
    43f6:	90 e0       	ldi	r25, 0x00	; 0
    43f8:	0e 94 20 22 	call	0x4440	; 0x4440 <fputc>
    43fc:	3a 94       	dec	r3
    43fe:	f6 cf       	rjmp	.-20     	; 0x43ec <vfprintf+0x37c>
    4400:	f7 01       	movw	r30, r14
    4402:	86 81       	ldd	r24, Z+6	; 0x06
    4404:	97 81       	ldd	r25, Z+7	; 0x07
    4406:	02 c0       	rjmp	.+4      	; 0x440c <vfprintf+0x39c>
    4408:	8f ef       	ldi	r24, 0xFF	; 255
    440a:	9f ef       	ldi	r25, 0xFF	; 255
    440c:	2c 96       	adiw	r28, 0x0c	; 12
    440e:	e2 e1       	ldi	r30, 0x12	; 18
    4410:	0c 94 d2 22 	jmp	0x45a4	; 0x45a4 <__epilogue_restores__>

00004414 <strnlen_P>:
    4414:	fc 01       	movw	r30, r24
    4416:	05 90       	lpm	r0, Z+
    4418:	61 50       	subi	r22, 0x01	; 1
    441a:	70 40       	sbci	r23, 0x00	; 0
    441c:	01 10       	cpse	r0, r1
    441e:	d8 f7       	brcc	.-10     	; 0x4416 <strnlen_P+0x2>
    4420:	80 95       	com	r24
    4422:	90 95       	com	r25
    4424:	8e 0f       	add	r24, r30
    4426:	9f 1f       	adc	r25, r31
    4428:	08 95       	ret

0000442a <strnlen>:
    442a:	fc 01       	movw	r30, r24
    442c:	61 50       	subi	r22, 0x01	; 1
    442e:	70 40       	sbci	r23, 0x00	; 0
    4430:	01 90       	ld	r0, Z+
    4432:	01 10       	cpse	r0, r1
    4434:	d8 f7       	brcc	.-10     	; 0x442c <strnlen+0x2>
    4436:	80 95       	com	r24
    4438:	90 95       	com	r25
    443a:	8e 0f       	add	r24, r30
    443c:	9f 1f       	adc	r25, r31
    443e:	08 95       	ret

00004440 <fputc>:
    4440:	0f 93       	push	r16
    4442:	1f 93       	push	r17
    4444:	cf 93       	push	r28
    4446:	df 93       	push	r29
    4448:	fb 01       	movw	r30, r22
    444a:	23 81       	ldd	r18, Z+3	; 0x03
    444c:	21 fd       	sbrc	r18, 1
    444e:	03 c0       	rjmp	.+6      	; 0x4456 <fputc+0x16>
    4450:	8f ef       	ldi	r24, 0xFF	; 255
    4452:	9f ef       	ldi	r25, 0xFF	; 255
    4454:	28 c0       	rjmp	.+80     	; 0x44a6 <fputc+0x66>
    4456:	22 ff       	sbrs	r18, 2
    4458:	16 c0       	rjmp	.+44     	; 0x4486 <fputc+0x46>
    445a:	46 81       	ldd	r20, Z+6	; 0x06
    445c:	57 81       	ldd	r21, Z+7	; 0x07
    445e:	24 81       	ldd	r18, Z+4	; 0x04
    4460:	35 81       	ldd	r19, Z+5	; 0x05
    4462:	42 17       	cp	r20, r18
    4464:	53 07       	cpc	r21, r19
    4466:	44 f4       	brge	.+16     	; 0x4478 <fputc+0x38>
    4468:	a0 81       	ld	r26, Z
    446a:	b1 81       	ldd	r27, Z+1	; 0x01
    446c:	9d 01       	movw	r18, r26
    446e:	2f 5f       	subi	r18, 0xFF	; 255
    4470:	3f 4f       	sbci	r19, 0xFF	; 255
    4472:	31 83       	std	Z+1, r19	; 0x01
    4474:	20 83       	st	Z, r18
    4476:	8c 93       	st	X, r24
    4478:	26 81       	ldd	r18, Z+6	; 0x06
    447a:	37 81       	ldd	r19, Z+7	; 0x07
    447c:	2f 5f       	subi	r18, 0xFF	; 255
    447e:	3f 4f       	sbci	r19, 0xFF	; 255
    4480:	37 83       	std	Z+7, r19	; 0x07
    4482:	26 83       	std	Z+6, r18	; 0x06
    4484:	10 c0       	rjmp	.+32     	; 0x44a6 <fputc+0x66>
    4486:	eb 01       	movw	r28, r22
    4488:	09 2f       	mov	r16, r25
    448a:	18 2f       	mov	r17, r24
    448c:	00 84       	ldd	r0, Z+8	; 0x08
    448e:	f1 85       	ldd	r31, Z+9	; 0x09
    4490:	e0 2d       	mov	r30, r0
    4492:	09 95       	icall
    4494:	89 2b       	or	r24, r25
    4496:	e1 f6       	brne	.-72     	; 0x4450 <fputc+0x10>
    4498:	8e 81       	ldd	r24, Y+6	; 0x06
    449a:	9f 81       	ldd	r25, Y+7	; 0x07
    449c:	01 96       	adiw	r24, 0x01	; 1
    449e:	9f 83       	std	Y+7, r25	; 0x07
    44a0:	8e 83       	std	Y+6, r24	; 0x06
    44a2:	81 2f       	mov	r24, r17
    44a4:	90 2f       	mov	r25, r16
    44a6:	df 91       	pop	r29
    44a8:	cf 91       	pop	r28
    44aa:	1f 91       	pop	r17
    44ac:	0f 91       	pop	r16
    44ae:	08 95       	ret

000044b0 <__ultoa_invert>:
    44b0:	fa 01       	movw	r30, r20
    44b2:	aa 27       	eor	r26, r26
    44b4:	28 30       	cpi	r18, 0x08	; 8
    44b6:	51 f1       	breq	.+84     	; 0x450c <__ultoa_invert+0x5c>
    44b8:	20 31       	cpi	r18, 0x10	; 16
    44ba:	81 f1       	breq	.+96     	; 0x451c <__ultoa_invert+0x6c>
    44bc:	e8 94       	clt
    44be:	6f 93       	push	r22
    44c0:	6e 7f       	andi	r22, 0xFE	; 254
    44c2:	6e 5f       	subi	r22, 0xFE	; 254
    44c4:	7f 4f       	sbci	r23, 0xFF	; 255
    44c6:	8f 4f       	sbci	r24, 0xFF	; 255
    44c8:	9f 4f       	sbci	r25, 0xFF	; 255
    44ca:	af 4f       	sbci	r26, 0xFF	; 255
    44cc:	b1 e0       	ldi	r27, 0x01	; 1
    44ce:	3e d0       	rcall	.+124    	; 0x454c <__ultoa_invert+0x9c>
    44d0:	b4 e0       	ldi	r27, 0x04	; 4
    44d2:	3c d0       	rcall	.+120    	; 0x454c <__ultoa_invert+0x9c>
    44d4:	67 0f       	add	r22, r23
    44d6:	78 1f       	adc	r23, r24
    44d8:	89 1f       	adc	r24, r25
    44da:	9a 1f       	adc	r25, r26
    44dc:	a1 1d       	adc	r26, r1
    44de:	68 0f       	add	r22, r24
    44e0:	79 1f       	adc	r23, r25
    44e2:	8a 1f       	adc	r24, r26
    44e4:	91 1d       	adc	r25, r1
    44e6:	a1 1d       	adc	r26, r1
    44e8:	6a 0f       	add	r22, r26
    44ea:	71 1d       	adc	r23, r1
    44ec:	81 1d       	adc	r24, r1
    44ee:	91 1d       	adc	r25, r1
    44f0:	a1 1d       	adc	r26, r1
    44f2:	20 d0       	rcall	.+64     	; 0x4534 <__ultoa_invert+0x84>
    44f4:	09 f4       	brne	.+2      	; 0x44f8 <__ultoa_invert+0x48>
    44f6:	68 94       	set
    44f8:	3f 91       	pop	r19
    44fa:	2a e0       	ldi	r18, 0x0A	; 10
    44fc:	26 9f       	mul	r18, r22
    44fe:	11 24       	eor	r1, r1
    4500:	30 19       	sub	r19, r0
    4502:	30 5d       	subi	r19, 0xD0	; 208
    4504:	31 93       	st	Z+, r19
    4506:	de f6       	brtc	.-74     	; 0x44be <__ultoa_invert+0xe>
    4508:	cf 01       	movw	r24, r30
    450a:	08 95       	ret
    450c:	46 2f       	mov	r20, r22
    450e:	47 70       	andi	r20, 0x07	; 7
    4510:	40 5d       	subi	r20, 0xD0	; 208
    4512:	41 93       	st	Z+, r20
    4514:	b3 e0       	ldi	r27, 0x03	; 3
    4516:	0f d0       	rcall	.+30     	; 0x4536 <__ultoa_invert+0x86>
    4518:	c9 f7       	brne	.-14     	; 0x450c <__ultoa_invert+0x5c>
    451a:	f6 cf       	rjmp	.-20     	; 0x4508 <__ultoa_invert+0x58>
    451c:	46 2f       	mov	r20, r22
    451e:	4f 70       	andi	r20, 0x0F	; 15
    4520:	40 5d       	subi	r20, 0xD0	; 208
    4522:	4a 33       	cpi	r20, 0x3A	; 58
    4524:	18 f0       	brcs	.+6      	; 0x452c <__ultoa_invert+0x7c>
    4526:	49 5d       	subi	r20, 0xD9	; 217
    4528:	31 fd       	sbrc	r19, 1
    452a:	40 52       	subi	r20, 0x20	; 32
    452c:	41 93       	st	Z+, r20
    452e:	02 d0       	rcall	.+4      	; 0x4534 <__ultoa_invert+0x84>
    4530:	a9 f7       	brne	.-22     	; 0x451c <__ultoa_invert+0x6c>
    4532:	ea cf       	rjmp	.-44     	; 0x4508 <__ultoa_invert+0x58>
    4534:	b4 e0       	ldi	r27, 0x04	; 4
    4536:	a6 95       	lsr	r26
    4538:	97 95       	ror	r25
    453a:	87 95       	ror	r24
    453c:	77 95       	ror	r23
    453e:	67 95       	ror	r22
    4540:	ba 95       	dec	r27
    4542:	c9 f7       	brne	.-14     	; 0x4536 <__ultoa_invert+0x86>
    4544:	00 97       	sbiw	r24, 0x00	; 0
    4546:	61 05       	cpc	r22, r1
    4548:	71 05       	cpc	r23, r1
    454a:	08 95       	ret
    454c:	9b 01       	movw	r18, r22
    454e:	ac 01       	movw	r20, r24
    4550:	0a 2e       	mov	r0, r26
    4552:	06 94       	lsr	r0
    4554:	57 95       	ror	r21
    4556:	47 95       	ror	r20
    4558:	37 95       	ror	r19
    455a:	27 95       	ror	r18
    455c:	ba 95       	dec	r27
    455e:	c9 f7       	brne	.-14     	; 0x4552 <__ultoa_invert+0xa2>
    4560:	62 0f       	add	r22, r18
    4562:	73 1f       	adc	r23, r19
    4564:	84 1f       	adc	r24, r20
    4566:	95 1f       	adc	r25, r21
    4568:	a0 1d       	adc	r26, r0
    456a:	08 95       	ret

0000456c <__prologue_saves__>:
    456c:	2f 92       	push	r2
    456e:	3f 92       	push	r3
    4570:	4f 92       	push	r4
    4572:	5f 92       	push	r5
    4574:	6f 92       	push	r6
    4576:	7f 92       	push	r7
    4578:	8f 92       	push	r8
    457a:	9f 92       	push	r9
    457c:	af 92       	push	r10
    457e:	bf 92       	push	r11
    4580:	cf 92       	push	r12
    4582:	df 92       	push	r13
    4584:	ef 92       	push	r14
    4586:	ff 92       	push	r15
    4588:	0f 93       	push	r16
    458a:	1f 93       	push	r17
    458c:	cf 93       	push	r28
    458e:	df 93       	push	r29
    4590:	cd b7       	in	r28, 0x3d	; 61
    4592:	de b7       	in	r29, 0x3e	; 62
    4594:	ca 1b       	sub	r28, r26
    4596:	db 0b       	sbc	r29, r27
    4598:	0f b6       	in	r0, 0x3f	; 63
    459a:	f8 94       	cli
    459c:	de bf       	out	0x3e, r29	; 62
    459e:	0f be       	out	0x3f, r0	; 63
    45a0:	cd bf       	out	0x3d, r28	; 61
    45a2:	09 94       	ijmp

000045a4 <__epilogue_restores__>:
    45a4:	2a 88       	ldd	r2, Y+18	; 0x12
    45a6:	39 88       	ldd	r3, Y+17	; 0x11
    45a8:	48 88       	ldd	r4, Y+16	; 0x10
    45aa:	5f 84       	ldd	r5, Y+15	; 0x0f
    45ac:	6e 84       	ldd	r6, Y+14	; 0x0e
    45ae:	7d 84       	ldd	r7, Y+13	; 0x0d
    45b0:	8c 84       	ldd	r8, Y+12	; 0x0c
    45b2:	9b 84       	ldd	r9, Y+11	; 0x0b
    45b4:	aa 84       	ldd	r10, Y+10	; 0x0a
    45b6:	b9 84       	ldd	r11, Y+9	; 0x09
    45b8:	c8 84       	ldd	r12, Y+8	; 0x08
    45ba:	df 80       	ldd	r13, Y+7	; 0x07
    45bc:	ee 80       	ldd	r14, Y+6	; 0x06
    45be:	fd 80       	ldd	r15, Y+5	; 0x05
    45c0:	0c 81       	ldd	r16, Y+4	; 0x04
    45c2:	1b 81       	ldd	r17, Y+3	; 0x03
    45c4:	aa 81       	ldd	r26, Y+2	; 0x02
    45c6:	b9 81       	ldd	r27, Y+1	; 0x01
    45c8:	ce 0f       	add	r28, r30
    45ca:	d1 1d       	adc	r29, r1
    45cc:	0f b6       	in	r0, 0x3f	; 63
    45ce:	f8 94       	cli
    45d0:	de bf       	out	0x3e, r29	; 62
    45d2:	0f be       	out	0x3f, r0	; 63
    45d4:	cd bf       	out	0x3d, r28	; 61
    45d6:	ed 01       	movw	r28, r26
    45d8:	08 95       	ret

000045da <_exit>:
    45da:	f8 94       	cli

000045dc <__stop_program>:
    45dc:	ff cf       	rjmp	.-2      	; 0x45dc <__stop_program>
